Archive member included to satisfy reference by file (symbol)

/Users/kristofer/agondev/release/lib/libc.a(putchar.o)
                              obj/fileio.o (_putchar)
/Users/kristofer/agondev/release/lib/libc.a(puts.o)
                              obj/fileio.o (_puts)
/Users/kristofer/agondev/release/lib/libc.a(strlen.o)
                              obj/fileio.o (_strlen)
/Users/kristofer/agondev/release/lib/libc.a(fclose.o)
                              obj/fileio.o (_fclose)
/Users/kristofer/agondev/release/lib/libc.a(fgets.o)
                              obj/fileio.o (_fgets)
/Users/kristofer/agondev/release/lib/libc.a(files.o)
                              /Users/kristofer/agondev/release/lib/libc.a(putchar.o) (_stdout)
/Users/kristofer/agondev/release/lib/libc.a(fopen.o)
                              obj/fileio.o (_fopen)
/Users/kristofer/agondev/release/lib/libc.a(fputc.o)
                              /Users/kristofer/agondev/release/lib/libc.a(putchar.o) (_fputc)
/Users/kristofer/agondev/release/lib/libc.a(fputs.o)
                              obj/fileio.o (_fputs)
/Users/kristofer/agondev/release/lib/libc.a(fread.o)
                              obj/fileio.o (_fread)
/Users/kristofer/agondev/release/lib/libc.a(fseek.o)
                              obj/fileio.o (_fseek)
/Users/kristofer/agondev/release/lib/libc.a(ftell.o)
                              obj/fileio.o (_ftell)
/Users/kristofer/agondev/release/lib/libc.a(fwrite.o)
                              obj/fileio.o (_fwrite)
/Users/kristofer/agondev/release/lib/libc.a(gets_s.o)
                              obj/fileio.o (_gets_s)
/Users/kristofer/agondev/release/lib/libc.a(remove.o)
                              obj/fileio.o (_remove)
/Users/kristofer/agondev/release/lib/libc.a(getchar.o)
                              /Users/kristofer/agondev/release/lib/libc.a(gets_s.o) (_getchar)
/Users/kristofer/agondev/release/lib/libc.a(mos_del.o)
                              /Users/kristofer/agondev/release/lib/libc.a(remove.o) (_mos_del)
/Users/kristofer/agondev/release/lib/libc.a(mos_fclose.o)
                              /Users/kristofer/agondev/release/lib/libc.a(fclose.o) (_mos_fclose)
/Users/kristofer/agondev/release/lib/libc.a(mos_flseek.o)
                              /Users/kristofer/agondev/release/lib/libc.a(fseek.o) (_mos_flseek)
/Users/kristofer/agondev/release/lib/libc.a(mos_fopen.o)
                              /Users/kristofer/agondev/release/lib/libc.a(fopen.o) (_mos_fopen)
/Users/kristofer/agondev/release/lib/libc.a(mos_fputc.o)
                              /Users/kristofer/agondev/release/lib/libc.a(fputc.o) (_mos_fputc)
/Users/kristofer/agondev/release/lib/libc.a(mos_fread.o)
                              /Users/kristofer/agondev/release/lib/libc.a(fread.o) (_mos_fread)
/Users/kristofer/agondev/release/lib/libc.a(mos_fwrite.o)
                              /Users/kristofer/agondev/release/lib/libc.a(fwrite.o) (_mos_fwrite)
/Users/kristofer/agondev/release/lib/libc.a(mos_getfil.o)
                              /Users/kristofer/agondev/release/lib/libc.a(fseek.o) (_mos_getfil)
/Users/kristofer/agondev/release/lib/libc.a(outchar.o)
                              /Users/kristofer/agondev/release/lib/libc.a(putchar.o) (_outchar)
/Users/kristofer/agondev/release/lib/libc.a(strchr.o)
                              /Users/kristofer/agondev/release/lib/libc.a(fopen.o) (_strchr)
/Users/kristofer/agondev/release/lib/libc.a(errno.o)
                              /Users/kristofer/agondev/release/lib/libc.a(fopen.o) (_errno)
/Users/kristofer/agondev/release/lib/libc.a(fgetc.o)
                              /Users/kristofer/agondev/release/lib/libc.a(fgets.o) (_fgetc)
/Users/kristofer/agondev/release/lib/libc.a(ungetc.o)
                              /Users/kristofer/agondev/release/lib/libc.a(fgetc.o) (_ungetc)
/Users/kristofer/agondev/release/lib/libc.a(mos_fgetc.o)
                              /Users/kristofer/agondev/release/lib/libc.a(fgetc.o) (_mos_fgetc)
/Users/kristofer/agondev/release/lib/libcrt.a(crt0.o)
                              (__start)
/Users/kristofer/agondev/release/lib/libcrt.a(frameset.o)
                              obj/fileio.o (__frameset)
/Users/kristofer/agondev/release/lib/libcrt.a(frameset0.o)
                              obj/fileio.o (__frameset0)
/Users/kristofer/agondev/release/lib/libcrt.a(idivs.o)
                              obj/fileio.o (__idivs)
/Users/kristofer/agondev/release/lib/libcrt.a(idivu.o)
                              /Users/kristofer/agondev/release/lib/libc.a(fread.o) (__idivu)
/Users/kristofer/agondev/release/lib/libcrt.a(idvrms.o)
                              /Users/kristofer/agondev/release/lib/libcrt.a(idivs.o) (__idvrms)
/Users/kristofer/agondev/release/lib/libcrt.a(idvrmu.o)
                              /Users/kristofer/agondev/release/lib/libcrt.a(idivu.o) (__idvrmu)
/Users/kristofer/agondev/release/lib/libcrt.a(imulu.o)
                              /Users/kristofer/agondev/release/lib/libc.a(fclose.o) (__imulu)
/Users/kristofer/agondev/release/lib/libcrt.a(inchar.o)
                              /Users/kristofer/agondev/release/lib/libc.a(getchar.o) (_inchar)
/Users/kristofer/agondev/release/lib/libcrt.a(indcallhl.o)
                              /Users/kristofer/agondev/release/lib/libcrt.a(crt0.o) (__indcallhl)
/Users/kristofer/agondev/release/lib/libcrt.a(ineg_sneg.o)
                              /Users/kristofer/agondev/release/lib/libcrt.a(idvrms.o) (__ineg)
/Users/kristofer/agondev/release/lib/libcrt.a(ladd.o)
                              /Users/kristofer/agondev/release/lib/libc.a(fseek.o) (__ladd)
/Users/kristofer/agondev/release/lib/libcrt.a(setflag.o)
                              obj/fileio.o (__setflag)
/Users/kristofer/agondev/release/lib/libcrt.a(xor.o)
                              obj/fileio.o (__ixor)
/Users/kristofer/agondev/release/lib/libc.a(free.c.o)
                              /Users/kristofer/agondev/release/lib/libcrt.a(crt0.o) (_free)
/Users/kristofer/agondev/release/lib/libc.a(malloc.c.o)
                              /Users/kristofer/agondev/release/lib/libcrt.a(crt0.o) (_malloc)
/Users/kristofer/agondev/release/lib/libc.a(sbrk.o)
                              /Users/kristofer/agondev/release/lib/libc.a(malloc.c.o) (_sbrk)

There are no discarded input sections

Memory Configuration

Name             Origin             Length             Attributes
USERRAM          0x00040000         0x00070000         rw
*default*        0x00000000         0xffffffff

Linker script and memory map

                0x00040000                        RAM_START = 0x40000
                0x00070000                        RAM_SIZE = 0x70000
                0x00000000                        _has_exit_handler = 0x0
                0x00040000                        . = RAM_START

.init           0x00040000      0x1d4
 *(.init .init.args .init.bss .fini)
 .init          0x00040000       0xbb /Users/kristofer/agondev/release/lib/libcrt.a(crt0.o)
                0x00040040                __mos_header
                0x00040045                __start
                0x000400b8                __start._main
 .fini          0x000400bb       0xbe /Users/kristofer/agondev/release/lib/libcrt.a(crt0.o)
                0x000400bb                ___exithl
                0x000400bd                _exit
                0x0004011c                __Exit
                0x00040120                _abort
 .init.bss      0x00040179       0x11 /Users/kristofer/agondev/release/lib/libcrt.a(crt0.o)
 .init.args     0x0004018a       0x4a /Users/kristofer/agondev/release/lib/libcrt.a(crt0.o)
                0x0004018a                _parse_option
                0x0004018a                _parse_params

.text           0x000401d4     0x13c7
 *(.text)
 .text          0x000401d4      0x6fb obj/fileio.o
                0x000401d4                _main
                0x0004056b                _open_file
                0x000405a5                _putint
                0x0004067f                _close_file
                0x000406b0                _cat_file
                0x0004075a                _seek_file
                0x000407d0                _read_file
 .text          0x000408cf       0x2f /Users/kristofer/agondev/release/lib/libc.a(putchar.o)
                0x000408cf                _putchar
 .text          0x000408fe       0x2c /Users/kristofer/agondev/release/lib/libc.a(puts.o)
                0x000408fe                _puts
 .text          0x0004092a       0x15 /Users/kristofer/agondev/release/lib/libc.a(strlen.o)
                0x0004092a                _strlen
 .text          0x0004093f       0x44 /Users/kristofer/agondev/release/lib/libc.a(fclose.o)
                0x0004093f                _fclose
 .text          0x00040983       0x93 /Users/kristofer/agondev/release/lib/libc.a(fgets.o)
                0x00040983                _fgets
 .text          0x00040a16       0x52 /Users/kristofer/agondev/release/lib/libc.a(files.o)
                0x00040a16                __stdio_init
 .text          0x00040a68      0x12c /Users/kristofer/agondev/release/lib/libc.a(fopen.o)
                0x00040a68                _fopen
                0x00040b29                ___fmodeflags
 .text          0x00040b94       0xb7 /Users/kristofer/agondev/release/lib/libc.a(fputc.o)
                0x00040b94                _fputc
                0x00040c24                _fput_char
 .text          0x00040c4b       0x62 /Users/kristofer/agondev/release/lib/libc.a(fputs.o)
                0x00040c4b                _fputs
 .text          0x00040cad       0xcc /Users/kristofer/agondev/release/lib/libc.a(fread.o)
                0x00040cad                _fread
 .text          0x00040d79       0xa9 /Users/kristofer/agondev/release/lib/libc.a(fseek.o)
                0x00040d79                _fseek
 .text          0x00040e22       0x3d /Users/kristofer/agondev/release/lib/libc.a(ftell.o)
                0x00040e22                _ftell
 .text          0x00040e5f       0xd4 /Users/kristofer/agondev/release/lib/libc.a(fwrite.o)
                0x00040e5f                _fwrite
 .text          0x00040f33      0x141 /Users/kristofer/agondev/release/lib/libc.a(gets_s.o)
                0x00040f33                _gets_s
 .text          0x00041074       0x40 /Users/kristofer/agondev/release/lib/libc.a(remove.o)
                0x00041074                _remove
 .text          0x000410b4       0x3d /Users/kristofer/agondev/release/lib/libc.a(getchar.o)
                0x000410b4                _getchar
 .text          0x000410f1       0x15 /Users/kristofer/agondev/release/lib/libc.a(mos_del.o)
                0x000410f1                _mos_del
 .text          0x00041106       0x15 /Users/kristofer/agondev/release/lib/libc.a(mos_fclose.o)
                0x00041106                _mos_fclose
 .text          0x0004111b       0x1f /Users/kristofer/agondev/release/lib/libc.a(mos_flseek.o)
                0x0004111b                _mos_flseek
 .text          0x0004113a       0x18 /Users/kristofer/agondev/release/lib/libc.a(mos_fopen.o)
                0x0004113a                _mos_fopen
 .text          0x00041152       0x18 /Users/kristofer/agondev/release/lib/libc.a(mos_fputc.o)
                0x00041152                _mos_fputc
 .text          0x0004116a       0x1c /Users/kristofer/agondev/release/lib/libc.a(mos_fread.o)
                0x0004116a                _mos_fread
 .text          0x00041186       0x1c /Users/kristofer/agondev/release/lib/libc.a(mos_fwrite.o)
                0x00041186                _mos_fwrite
 .text          0x000411a2       0x15 /Users/kristofer/agondev/release/lib/libc.a(mos_getfil.o)
                0x000411a2                _mos_getfil
 .text          0x000411b7        0x7 /Users/kristofer/agondev/release/lib/libc.a(outchar.o)
                0x000411b7                _outchar
 .text          0x000411be       0x1d /Users/kristofer/agondev/release/lib/libc.a(strchr.o)
                0x000411be                _strchr
 .text          0x000411db        0x0 /Users/kristofer/agondev/release/lib/libc.a(errno.o)
 .text          0x000411db       0xdf /Users/kristofer/agondev/release/lib/libc.a(fgetc.o)
                0x000411db                _fgetc
 .text          0x000412ba       0x3d /Users/kristofer/agondev/release/lib/libc.a(ungetc.o)
                0x000412ba                _ungetc
 .text          0x000412f7       0x15 /Users/kristofer/agondev/release/lib/libc.a(mos_fgetc.o)
                0x000412f7                _mos_fgetc
 .text          0x0004130c       0x2c /Users/kristofer/agondev/release/lib/libcrt.a(crt0.o)
                0x0004130c                _atexit
                0x0004130c                _on_exit
 .text          0x00041338        0xe /Users/kristofer/agondev/release/lib/libcrt.a(frameset.o)
                0x00041338                __frameset
 .text          0x00041346        0xb /Users/kristofer/agondev/release/lib/libcrt.a(frameset0.o)
                0x00041346                __frameset0
 .text          0x00041351        0x7 /Users/kristofer/agondev/release/lib/libcrt.a(idivs.o)
                0x00041351                __idivs
 .text          0x00041358        0x8 /Users/kristofer/agondev/release/lib/libcrt.a(idivu.o)
                0x00041358                __idivu
 .text          0x00041360       0x2e /Users/kristofer/agondev/release/lib/libcrt.a(idvrms.o)
                0x00041360                __idvrms
 .text          0x0004138e       0x18 /Users/kristofer/agondev/release/lib/libcrt.a(idvrmu.o)
                0x0004138e                __idvrmu
                0x00041392                __idvrmu.hijack_a_iters_ude_dividend
 .text          0x000413a6       0x30 /Users/kristofer/agondev/release/lib/libcrt.a(imulu.o)
                0x000413a6                __imuls
                0x000413a6                __imulu
 .text          0x000413d6        0x7 /Users/kristofer/agondev/release/lib/libcrt.a(inchar.o)
                0x000413d6                _inchar
 .text          0x000413dd        0x1 /Users/kristofer/agondev/release/lib/libcrt.a(indcallhl.o)
                0x000413dd                __indcallhl
 .text          0x000413de        0x9 /Users/kristofer/agondev/release/lib/libcrt.a(ineg_sneg.o)
                0x000413de                __ineg
                0x000413de                __sneg
 .text          0x000413e7        0x6 /Users/kristofer/agondev/release/lib/libcrt.a(ladd.o)
                0x000413e7                __ladd
 .text          0x000413ed        0xf /Users/kristofer/agondev/release/lib/libcrt.a(setflag.o)
                0x000413ed                __setflag
 .text          0x000413fc       0x1b /Users/kristofer/agondev/release/lib/libcrt.a(xor.o)
                0x000413fc                __lxor
                0x00041400                __ixor
 .text          0x00041417       0xbd /Users/kristofer/agondev/release/lib/libc.a(free.c.o)
                0x00041417                _free
 .text          0x000414d4       0x9f /Users/kristofer/agondev/release/lib/libc.a(malloc.c.o)
                0x000414d4                _malloc
 .text          0x00041573       0x28 /Users/kristofer/agondev/release/lib/libc.a(sbrk.o)
                0x00041573                _sbrk

.init_array     0x0004159b        0x0
 *(.init_array)
 .init_array    0x0004159b        0x0 /Users/kristofer/agondev/release/lib/libcrt.a(crt0.o)

.ctors          0x0004159b        0x0
 *(.ctors)
 .ctors         0x0004159b        0x0 /Users/kristofer/agondev/release/lib/libcrt.a(crt0.o)

.dtors          0x0004159b        0x0
 *(.dtors)
 .dtors         0x0004159b        0x0 /Users/kristofer/agondev/release/lib/libcrt.a(crt0.o)

.comment        0x00000000      0x7e4
 .comment       0x00000000       0x71 obj/fileio.o
 .comment       0x00000071       0x71 /Users/kristofer/agondev/release/lib/libc.a(fclose.o)
 .comment       0x000000e2       0x71 /Users/kristofer/agondev/release/lib/libc.a(fgets.o)
 .comment       0x00000153       0x71 /Users/kristofer/agondev/release/lib/libc.a(files.o)
 .comment       0x000001c4       0x71 /Users/kristofer/agondev/release/lib/libc.a(fopen.o)
 .comment       0x00000235       0x71 /Users/kristofer/agondev/release/lib/libc.a(fputc.o)
 .comment       0x000002a6       0x71 /Users/kristofer/agondev/release/lib/libc.a(fputs.o)
 .comment       0x00000317       0x71 /Users/kristofer/agondev/release/lib/libc.a(fread.o)
 .comment       0x00000388       0x71 /Users/kristofer/agondev/release/lib/libc.a(fseek.o)
 .comment       0x000003f9       0x71 /Users/kristofer/agondev/release/lib/libc.a(ftell.o)
 .comment       0x0000046a       0x71 /Users/kristofer/agondev/release/lib/libc.a(fwrite.o)
 .comment       0x000004db       0x71 /Users/kristofer/agondev/release/lib/libc.a(gets_s.o)
 .comment       0x0000054c       0x71 /Users/kristofer/agondev/release/lib/libc.a(remove.o)
 .comment       0x000005bd       0x71 /Users/kristofer/agondev/release/lib/libc.a(errno.o)
 .comment       0x0000062e       0x71 /Users/kristofer/agondev/release/lib/libc.a(fgetc.o)
 .comment       0x0000069f       0x71 /Users/kristofer/agondev/release/lib/libc.a(ungetc.o)
 .comment       0x00000710       0x6a /Users/kristofer/agondev/release/lib/libc.a(free.c.o)
 .comment       0x0000077a       0x6a /Users/kristofer/agondev/release/lib/libc.a(malloc.c.o)

.fini_array     0x0004159b        0x0
 *(.fini_array)
 .fini_array    0x0004159b        0x0 /Users/kristofer/agondev/release/lib/libcrt.a(crt0.o)

.rodata         0x0004159b      0x498
 *(.rodata)
 .rodata        0x0004159b      0x47f obj/fileio.o
                0x0004159b                _max_line_len
 .rodata        0x00041a1a        0x9 /Users/kristofer/agondev/release/lib/libc.a(puts.o)
                0x00041a1a                ___null_literal_str
                0x00041a21                ___end_of_line_str
 .rodata        0x00041a23        0x4 /Users/kristofer/agondev/release/lib/libc.a(fopen.o)
 .rodata        0x00041a27        0xc /Users/kristofer/agondev/release/lib/libcrt.a(crt0.o)

.data           0x00041a33       0x48
 *(.data)
 .data          0x00041a33        0x0 obj/fileio.o
 .data          0x00041a33        0x0 /Users/kristofer/agondev/release/lib/libc.a(putchar.o)
 .data          0x00041a33        0x0 /Users/kristofer/agondev/release/lib/libc.a(puts.o)
 .data          0x00041a33        0x0 /Users/kristofer/agondev/release/lib/libc.a(strlen.o)
 .data          0x00041a33        0x0 /Users/kristofer/agondev/release/lib/libc.a(fclose.o)
 .data          0x00041a33        0x0 /Users/kristofer/agondev/release/lib/libc.a(fgets.o)
 .data          0x00041a33        0xf /Users/kristofer/agondev/release/lib/libc.a(files.o)
                0x00041a33                _stdin
                0x00041a38                _stdout
                0x00041a3d                _stderr
 .data          0x00041a42        0x0 /Users/kristofer/agondev/release/lib/libc.a(fopen.o)
 .data          0x00041a42        0x0 /Users/kristofer/agondev/release/lib/libc.a(fputc.o)
 .data          0x00041a42        0x0 /Users/kristofer/agondev/release/lib/libc.a(fputs.o)
 .data          0x00041a42        0x0 /Users/kristofer/agondev/release/lib/libc.a(fread.o)
 .data          0x00041a42        0x0 /Users/kristofer/agondev/release/lib/libc.a(fseek.o)
 .data          0x00041a42        0x0 /Users/kristofer/agondev/release/lib/libc.a(ftell.o)
 .data          0x00041a42        0x0 /Users/kristofer/agondev/release/lib/libc.a(fwrite.o)
 .data          0x00041a42        0x0 /Users/kristofer/agondev/release/lib/libc.a(gets_s.o)
 .data          0x00041a42        0x0 /Users/kristofer/agondev/release/lib/libc.a(remove.o)
 .data          0x00041a42        0x0 /Users/kristofer/agondev/release/lib/libc.a(getchar.o)
 .data          0x00041a42        0x0 /Users/kristofer/agondev/release/lib/libc.a(mos_del.o)
 .data          0x00041a42        0x0 /Users/kristofer/agondev/release/lib/libc.a(mos_fclose.o)
 .data          0x00041a42        0x0 /Users/kristofer/agondev/release/lib/libc.a(mos_flseek.o)
 .data          0x00041a42        0x0 /Users/kristofer/agondev/release/lib/libc.a(mos_fopen.o)
 .data          0x00041a42        0x0 /Users/kristofer/agondev/release/lib/libc.a(mos_fputc.o)
 .data          0x00041a42        0x0 /Users/kristofer/agondev/release/lib/libc.a(mos_fread.o)
 .data          0x00041a42        0x0 /Users/kristofer/agondev/release/lib/libc.a(mos_fwrite.o)
 .data          0x00041a42        0x0 /Users/kristofer/agondev/release/lib/libc.a(mos_getfil.o)
 .data          0x00041a42        0x0 /Users/kristofer/agondev/release/lib/libc.a(outchar.o)
 .data          0x00041a42        0x0 /Users/kristofer/agondev/release/lib/libc.a(strchr.o)
 .data          0x00041a42        0x0 /Users/kristofer/agondev/release/lib/libc.a(errno.o)
 .data          0x00041a42        0x0 /Users/kristofer/agondev/release/lib/libc.a(fgetc.o)
 .data          0x00041a42        0x0 /Users/kristofer/agondev/release/lib/libc.a(ungetc.o)
 .data          0x00041a42        0x0 /Users/kristofer/agondev/release/lib/libc.a(mos_fgetc.o)
 .data          0x00041a42       0x36 /Users/kristofer/agondev/release/lib/libcrt.a(crt0.o)
                0x00041a75                _exit.sp
 .data          0x00041a78        0x0 /Users/kristofer/agondev/release/lib/libcrt.a(frameset.o)
 .data          0x00041a78        0x0 /Users/kristofer/agondev/release/lib/libcrt.a(frameset0.o)
 .data          0x00041a78        0x0 /Users/kristofer/agondev/release/lib/libcrt.a(idivs.o)
 .data          0x00041a78        0x0 /Users/kristofer/agondev/release/lib/libcrt.a(idivu.o)
 .data          0x00041a78        0x0 /Users/kristofer/agondev/release/lib/libcrt.a(idvrms.o)
 .data          0x00041a78        0x0 /Users/kristofer/agondev/release/lib/libcrt.a(idvrmu.o)
 .data          0x00041a78        0x0 /Users/kristofer/agondev/release/lib/libcrt.a(imulu.o)
 .data          0x00041a78        0x0 /Users/kristofer/agondev/release/lib/libcrt.a(inchar.o)
 .data          0x00041a78        0x0 /Users/kristofer/agondev/release/lib/libcrt.a(indcallhl.o)
 .data          0x00041a78        0x0 /Users/kristofer/agondev/release/lib/libcrt.a(ineg_sneg.o)
 .data          0x00041a78        0x0 /Users/kristofer/agondev/release/lib/libcrt.a(ladd.o)
 .data          0x00041a78        0x0 /Users/kristofer/agondev/release/lib/libcrt.a(setflag.o)
 .data          0x00041a78        0x0 /Users/kristofer/agondev/release/lib/libcrt.a(xor.o)
 .data          0x00041a78        0x0 /Users/kristofer/agondev/release/lib/libc.a(free.c.o)
 .data          0x00041a78        0x0 /Users/kristofer/agondev/release/lib/libc.a(malloc.c.o)
 .data          0x00041a78        0x3 /Users/kristofer/agondev/release/lib/libc.a(sbrk.o)
                0x00041a78                __sbrkbase

.bss            0x00041a7b       0x31
                0x00041a7b                        bss_start = .
 *(.bss .bss*)
 .bss           0x00041a7b        0x0 obj/fileio.o
 .bss           0x00041a7b        0x0 /Users/kristofer/agondev/release/lib/libc.a(putchar.o)
 .bss           0x00041a7b        0x0 /Users/kristofer/agondev/release/lib/libc.a(puts.o)
 .bss           0x00041a7b        0x0 /Users/kristofer/agondev/release/lib/libc.a(strlen.o)
 .bss           0x00041a7b        0x0 /Users/kristofer/agondev/release/lib/libc.a(fclose.o)
 .bss           0x00041a7b        0x0 /Users/kristofer/agondev/release/lib/libc.a(fgets.o)
 .bss           0x00041a7b       0x28 /Users/kristofer/agondev/release/lib/libc.a(files.o)
                0x00041a7b                __file_streams
 .bss           0x00041aa3        0x0 /Users/kristofer/agondev/release/lib/libc.a(fopen.o)
 .bss           0x00041aa3        0x0 /Users/kristofer/agondev/release/lib/libc.a(fputc.o)
 .bss           0x00041aa3        0x0 /Users/kristofer/agondev/release/lib/libc.a(fputs.o)
 .bss           0x00041aa3        0x0 /Users/kristofer/agondev/release/lib/libc.a(fread.o)
 .bss           0x00041aa3        0x0 /Users/kristofer/agondev/release/lib/libc.a(fseek.o)
 .bss           0x00041aa3        0x0 /Users/kristofer/agondev/release/lib/libc.a(ftell.o)
 .bss           0x00041aa3        0x0 /Users/kristofer/agondev/release/lib/libc.a(fwrite.o)
 .bss           0x00041aa3        0x0 /Users/kristofer/agondev/release/lib/libc.a(gets_s.o)
 .bss           0x00041aa3        0x0 /Users/kristofer/agondev/release/lib/libc.a(remove.o)
 .bss           0x00041aa3        0x0 /Users/kristofer/agondev/release/lib/libc.a(getchar.o)
 .bss           0x00041aa3        0x0 /Users/kristofer/agondev/release/lib/libc.a(mos_del.o)
 .bss           0x00041aa3        0x0 /Users/kristofer/agondev/release/lib/libc.a(mos_fclose.o)
 .bss           0x00041aa3        0x0 /Users/kristofer/agondev/release/lib/libc.a(mos_flseek.o)
 .bss           0x00041aa3        0x0 /Users/kristofer/agondev/release/lib/libc.a(mos_fopen.o)
 .bss           0x00041aa3        0x0 /Users/kristofer/agondev/release/lib/libc.a(mos_fputc.o)
 .bss           0x00041aa3        0x0 /Users/kristofer/agondev/release/lib/libc.a(mos_fread.o)
 .bss           0x00041aa3        0x0 /Users/kristofer/agondev/release/lib/libc.a(mos_fwrite.o)
 .bss           0x00041aa3        0x0 /Users/kristofer/agondev/release/lib/libc.a(mos_getfil.o)
 .bss           0x00041aa3        0x0 /Users/kristofer/agondev/release/lib/libc.a(outchar.o)
 .bss           0x00041aa3        0x0 /Users/kristofer/agondev/release/lib/libc.a(strchr.o)
 .bss           0x00041aa3        0x3 /Users/kristofer/agondev/release/lib/libc.a(errno.o)
                0x00041aa3                _errno
 .bss           0x00041aa6        0x0 /Users/kristofer/agondev/release/lib/libc.a(fgetc.o)
 .bss           0x00041aa6        0x0 /Users/kristofer/agondev/release/lib/libc.a(ungetc.o)
 .bss           0x00041aa6        0x0 /Users/kristofer/agondev/release/lib/libc.a(mos_fgetc.o)
 .bss           0x00041aa6        0x0 /Users/kristofer/agondev/release/lib/libcrt.a(crt0.o)
 .bss           0x00041aa6        0x0 /Users/kristofer/agondev/release/lib/libcrt.a(frameset.o)
 .bss           0x00041aa6        0x0 /Users/kristofer/agondev/release/lib/libcrt.a(frameset0.o)
 .bss           0x00041aa6        0x0 /Users/kristofer/agondev/release/lib/libcrt.a(idivs.o)
 .bss           0x00041aa6        0x0 /Users/kristofer/agondev/release/lib/libcrt.a(idivu.o)
 .bss           0x00041aa6        0x0 /Users/kristofer/agondev/release/lib/libcrt.a(idvrms.o)
 .bss           0x00041aa6        0x0 /Users/kristofer/agondev/release/lib/libcrt.a(idvrmu.o)
 .bss           0x00041aa6        0x0 /Users/kristofer/agondev/release/lib/libcrt.a(imulu.o)
 .bss           0x00041aa6        0x0 /Users/kristofer/agondev/release/lib/libcrt.a(inchar.o)
 .bss           0x00041aa6        0x0 /Users/kristofer/agondev/release/lib/libcrt.a(indcallhl.o)
 .bss           0x00041aa6        0x0 /Users/kristofer/agondev/release/lib/libcrt.a(ineg_sneg.o)
 .bss           0x00041aa6        0x0 /Users/kristofer/agondev/release/lib/libcrt.a(ladd.o)
 .bss           0x00041aa6        0x0 /Users/kristofer/agondev/release/lib/libcrt.a(setflag.o)
 .bss           0x00041aa6        0x0 /Users/kristofer/agondev/release/lib/libcrt.a(xor.o)
 .bss           0x00041aa6        0x0 /Users/kristofer/agondev/release/lib/libc.a(free.c.o)
 .bss           0x00041aa6        0x6 /Users/kristofer/agondev/release/lib/libc.a(malloc.c.o)
                0x00041aa6                __alloc_base
 .bss           0x00041aac        0x0 /Users/kristofer/agondev/release/lib/libc.a(sbrk.o)
                0x00041aac                        bss_end = .
                0x000b0000                        __stack = (RAM_START + RAM_SIZE)
                0x00041a7b                        ___low_bss = bss_start
                0x00000031                        ___len_bss = SIZEOF (.bss)
                0x00041aac                        ___heapbot = bss_end
                0x000b0000                        ___heaptop = (RAM_START + RAM_SIZE)
                0x00000001                        ___run_clearbss = (___len_bss > 0x0)
                0x00000000                        ___init_array_count = (SIZEOF (.init_array) / 0x3)
                0x00000000                        ___ctors_count = (SIZEOF (.ctors) / 0x3)
                0x00000000                        ___dtors_count = (SIZEOF (.dtors) / 0x3)
                0x00000000                        ___fini_array_count = (SIZEOF (.fini_array) / 0x3)
                0x00000000                        ___init_count = (___init_array_count + ___ctors_count)
                0x00000000                        ___fini_count = (___dtors_count + ___fini_array_count)
                0x00000000                        ___run_init = (___init_count > 0x0)
                0x00000000                        ___run_fini = (___fini_count > 0x0)
                0x00000100                        ___init_count_a = ((((___init_count - 0x1) >> 0x10) & 0xff) + 0x1)
                0x00000100                        ___init_count_b = (((___init_count - 0x1) & 0xff) + 0x1)
                0x00000100                        ___init_count_c = ((((___init_count - 0x1) >> 0x8) & 0xff) + 0x1)
                0x00000100                        ___fini_count_a = ((((___fini_count - 0x1) >> 0x10) & 0xff) + 0x1)
                0x00000100                        ___fini_count_b = (((___fini_count - 0x1) & 0xff) + 0x1)
                0x00000100                        ___fini_count_c = ((((___fini_count - 0x1) >> 0x8) & 0xff) + 0x1)
                0x0004159b                        ___init_array_functions = (SIZEOF (.init_array) + ADDR (.init_array))
                0x0004159b                        ___init_ctors_functions = (SIZEOF (.ctors) + ADDR (.ctors))
                0x0004159b                        ___fini_dtors_functions = (SIZEOF (.dtors) + ADDR (.dtors))
                0x0004159b                        ___fini_array_functions = (SIZEOF (.fini_array) + ADDR (.fini_array))
LOAD obj/fileio.o
START GROUP
LOAD /Users/kristofer/agondev/release/lib/libc.a
LOAD /Users/kristofer/agondev/release/lib/libagon.a
LOAD /Users/kristofer/agondev/release/lib/libcrt.a
LOAD /Users/kristofer/agondev/release/lib/libfp.a
END GROUP
OUTPUT(bin/fileio.c.bin binary)
