Archive member included to satisfy reference by file (symbol)

/Users/kristofer/agondev/release/lib/libc.a(free.c.o)
                              obj/lis-py3.o (_free)
/Users/kristofer/agondev/release/lib/libc.a(malloc.c.o)
                              obj/lis-py3.o (_malloc)
/Users/kristofer/agondev/release/lib/libc.a(putchar.o)
                              obj/lis-py3.o (_putchar)
/Users/kristofer/agondev/release/lib/libc.a(realloc.c.o)
                              obj/lis-py3.o (_realloc)
/Users/kristofer/agondev/release/lib/libc.a(sbrk.o)
                              /Users/kristofer/agondev/release/lib/libc.a(malloc.c.o) (_sbrk)
/Users/kristofer/agondev/release/lib/libc.a(strcat.o)
                              obj/lis-py3.o (_strcat)
/Users/kristofer/agondev/release/lib/libc.a(strcmp.o)
                              obj/lis-py3.o (_strcmp)
/Users/kristofer/agondev/release/lib/libc.a(strdup.o)
                              obj/lis-py3.o (_strdup)
/Users/kristofer/agondev/release/lib/libc.a(strlen.o)
                              obj/lis-py3.o (_strlen)
/Users/kristofer/agondev/release/lib/libc.a(fgets.o)
                              obj/lis-py3.o (_fgets)
/Users/kristofer/agondev/release/lib/libc.a(files.o)
                              obj/lis-py3.o (_stdin)
/Users/kristofer/agondev/release/lib/libc.a(fputc.o)
                              /Users/kristofer/agondev/release/lib/libc.a(putchar.o) (_fputc)
/Users/kristofer/agondev/release/lib/libc.a(fwrite.o)
                              obj/lis-py3.o (_fwrite)
/Users/kristofer/agondev/release/lib/libc.a(nanoprintf.o)
                              obj/lis-py3.o (_printf)
/Users/kristofer/agondev/release/lib/libc.a(strtof.o)
                              obj/lis-py3.o (_strtod)
/Users/kristofer/agondev/release/lib/libc.a(strtok.o)
                              obj/lis-py3.o (_strtok)
/Users/kristofer/agondev/release/lib/libc.a(isspace.o)
                              /Users/kristofer/agondev/release/lib/libc.a(strtof.o) (_isspace)
/Users/kristofer/agondev/release/lib/libc.a(memcpy.o)
                              /Users/kristofer/agondev/release/lib/libc.a(realloc.c.o) (_memcpy)
/Users/kristofer/agondev/release/lib/libc.a(mos_fputc.o)
                              /Users/kristofer/agondev/release/lib/libc.a(fputc.o) (_mos_fputc)
/Users/kristofer/agondev/release/lib/libc.a(mos_fwrite.o)
                              /Users/kristofer/agondev/release/lib/libc.a(fwrite.o) (_mos_fwrite)
/Users/kristofer/agondev/release/lib/libc.a(outchar.o)
                              /Users/kristofer/agondev/release/lib/libc.a(putchar.o) (_outchar)
/Users/kristofer/agondev/release/lib/libc.a(strpbrk.o)
                              /Users/kristofer/agondev/release/lib/libc.a(strtok.o) (_strpbrk)
/Users/kristofer/agondev/release/lib/libc.a(strspn.o)
                              /Users/kristofer/agondev/release/lib/libc.a(strtok.o) (_strspn)
/Users/kristofer/agondev/release/lib/libc.a(errno.o)
                              /Users/kristofer/agondev/release/lib/libc.a(strtof.o) (_errno)
/Users/kristofer/agondev/release/lib/libc.a(fgetc.o)
                              /Users/kristofer/agondev/release/lib/libc.a(fgets.o) (_fgetc)
/Users/kristofer/agondev/release/lib/libc.a(ungetc.o)
                              /Users/kristofer/agondev/release/lib/libc.a(fgetc.o) (_ungetc)
/Users/kristofer/agondev/release/lib/libc.a(mos_fgetc.o)
                              /Users/kristofer/agondev/release/lib/libc.a(fgetc.o) (_mos_fgetc)
/Users/kristofer/agondev/release/lib/libcrt.a(and.o)
                              /Users/kristofer/agondev/release/lib/libc.a(nanoprintf.o) (__land)
/Users/kristofer/agondev/release/lib/libcrt.a(bshru.o)
                              /Users/kristofer/agondev/release/lib/libc.a(nanoprintf.o) (__bshru)
/Users/kristofer/agondev/release/lib/libcrt.a(crt0.o)
                              (__start)
/Users/kristofer/agondev/release/lib/libcrt.a(frameset.o)
                              obj/lis-py3.o (__frameset)
/Users/kristofer/agondev/release/lib/libcrt.a(frameset0.o)
                              obj/lis-py3.o (__frameset0)
/Users/kristofer/agondev/release/lib/libcrt.a(idivu.o)
                              /Users/kristofer/agondev/release/lib/libc.a(fwrite.o) (__idivu)
/Users/kristofer/agondev/release/lib/libcrt.a(idvrmu.o)
                              /Users/kristofer/agondev/release/lib/libcrt.a(idivu.o) (__idvrmu)
/Users/kristofer/agondev/release/lib/libcrt.a(imulu.o)
                              obj/lis-py3.o (__imulu)
/Users/kristofer/agondev/release/lib/libcrt.a(inchar.o)
                              /Users/kristofer/agondev/release/lib/libc.a(fgetc.o) (_inchar)
/Users/kristofer/agondev/release/lib/libcrt.a(indcallhl.o)
                              obj/lis-py3.o (__indcallhl)
/Users/kristofer/agondev/release/lib/libcrt.a(ineg_sneg.o)
                              /Users/kristofer/agondev/release/lib/libc.a(strtof.o) (__ineg)
/Users/kristofer/agondev/release/lib/libcrt.a(ishl.o)
                              obj/lis-py3.o (__ishl)
/Users/kristofer/agondev/release/lib/libcrt.a(ishrs.o)
                              /Users/kristofer/agondev/release/lib/libc.a(nanoprintf.o) (__ishru)
/Users/kristofer/agondev/release/lib/libcrt.a(ladd.o)
                              /Users/kristofer/agondev/release/lib/libc.a(nanoprintf.o) (__ladd)
/Users/kristofer/agondev/release/lib/libcrt.a(lcmpu.o)
                              /Users/kristofer/agondev/release/lib/libc.a(nanoprintf.o) (__lcmpu)
/Users/kristofer/agondev/release/lib/libcrt.a(lcmpzero.o)
                              /Users/kristofer/agondev/release/lib/libc.a(nanoprintf.o) (__lcmpzero)
/Users/kristofer/agondev/release/lib/libcrt.a(ldivu.o)
                              /Users/kristofer/agondev/release/lib/libc.a(nanoprintf.o) (__ldivu)
/Users/kristofer/agondev/release/lib/libcrt.a(ldvrmu.o)
                              /Users/kristofer/agondev/release/lib/libcrt.a(ldivu.o) (__ldvrmu)
/Users/kristofer/agondev/release/lib/libcrt.a(lmulu.o)
                              /Users/kristofer/agondev/release/lib/libc.a(nanoprintf.o) (__lmulu)
/Users/kristofer/agondev/release/lib/libcrt.a(lneg.o)
                              /Users/kristofer/agondev/release/lib/libc.a(nanoprintf.o) (__lneg)
/Users/kristofer/agondev/release/lib/libcrt.a(lshl.o)
                              /Users/kristofer/agondev/release/lib/libc.a(nanoprintf.o) (__lshl)
/Users/kristofer/agondev/release/lib/libcrt.a(lshru.o)
                              /Users/kristofer/agondev/release/lib/libc.a(nanoprintf.o) (__lshru)
/Users/kristofer/agondev/release/lib/libcrt.a(sand.o)
                              /Users/kristofer/agondev/release/lib/libc.a(nanoprintf.o) (__sand)
/Users/kristofer/agondev/release/lib/libcrt.a(setflag.o)
                              obj/lis-py3.o (__setflag)
/Users/kristofer/agondev/release/lib/libcrt.a(sor.o)
                              /Users/kristofer/agondev/release/lib/libc.a(strtof.o) (__sor)
/Users/kristofer/agondev/release/lib/libcrt.a(sshru.o)
                              /Users/kristofer/agondev/release/lib/libc.a(nanoprintf.o) (__sshru)
/Users/kristofer/agondev/release/lib/libcrt.a(xor.o)
                              /Users/kristofer/agondev/release/lib/libc.a(nanoprintf.o) (__ixor)
/Users/kristofer/agondev/release/lib/libcrt.a(lshrs.o)
                              /Users/kristofer/agondev/release/lib/libcrt.a(lshru.o) (__lshrs.hijack_lshru)
/Users/kristofer/agondev/release/lib/libfp.a(fpadd.o)
                              obj/lis-py3.o (__fadd)
/Users/kristofer/agondev/release/lib/libfp.a(fpcmp.o)
                              obj/lis-py3.o (__fcmp)
/Users/kristofer/agondev/release/lib/libfp.a(fpdiv.o)
                              obj/lis-py3.o (__fdiv)
/Users/kristofer/agondev/release/lib/libfp.a(fpftol.o)
                              obj/lis-py3.o (__ftol)
/Users/kristofer/agondev/release/lib/libfp.a(fpltof.o)
                              obj/lis-py3.o (__ltof)
/Users/kristofer/agondev/release/lib/libfp.a(fpmul.o)
                              obj/lis-py3.o (__fmul)
/Users/kristofer/agondev/release/lib/libfp.a(fpneg.o)
                              obj/lis-py3.o (__fneg)
/Users/kristofer/agondev/release/lib/libfp.a(fppack.o)
                              /Users/kristofer/agondev/release/lib/libfp.a(fpadd.o) (__fppack)
/Users/kristofer/agondev/release/lib/libfp.a(fpsub.o)
                              obj/lis-py3.o (__fsub)
/Users/kristofer/agondev/release/lib/libfp.a(fpupop1.o)
                              /Users/kristofer/agondev/release/lib/libfp.a(fpadd.o) (__fpupop1)
/Users/kristofer/agondev/release/lib/libfp.a(fpupop2.o)
                              /Users/kristofer/agondev/release/lib/libfp.a(fpadd.o) (__fpupop2)
/Users/kristofer/agondev/release/lib/libcrt.a(lcmps.o)
                              /Users/kristofer/agondev/release/lib/libfp.a(fpcmp.o) (__lcmps)

There are no discarded input sections

Memory Configuration

Name             Origin             Length             Attributes
USERRAM          0x00040000         0x00070000         rw
*default*        0x00000000         0xffffffff

Linker script and memory map

                0x00040000                        RAM_START = 0x40000
                0x00070000                        RAM_SIZE = 0x70000
                0x00000000                        _has_exit_handler = 0x0
                0x00040000                        . = RAM_START

.init           0x00040000      0x1d4
 *(.init .init.args .init.bss .fini)
 .init          0x00040000       0xbb /Users/kristofer/agondev/release/lib/libcrt.a(crt0.o)
                0x00040040                __mos_header
                0x00040045                __start
                0x000400b8                __start._main
 .fini          0x000400bb       0xbe /Users/kristofer/agondev/release/lib/libcrt.a(crt0.o)
                0x000400bb                ___exithl
                0x000400bd                _exit
                0x0004011c                __Exit
                0x00040120                _abort
 .init.bss      0x00040179       0x11 /Users/kristofer/agondev/release/lib/libcrt.a(crt0.o)
 .init.args     0x0004018a       0x4a /Users/kristofer/agondev/release/lib/libcrt.a(crt0.o)
                0x0004018a                _parse_option
                0x0004018a                _parse_params

.text           0x000401d4     0x40ca
 *(.text)
 .text          0x000401d4     0x1c8a obj/lis-py3.o
                0x000401d4                _create_symbol
                0x00040206                _create_number
                0x00040230                _create_list
                0x00040255                _create_primitive
                0x00040279                _create_procedure
                0x000402a9                _free_cell
                0x0004035b                _create_env
                0x00040388                _free_env
                0x000403ff                _list_append
                0x000404aa                _list_get
                0x0004050a                _env_set
                0x00040617                _env_get
                0x000406b5                _env_find
                0x0004072b                _standard_env
                0x000408fe                _prim_add
                0x000409a1                _prim_subtract
                0x00040ad2                _prim_multiply
                0x00040b78                _prim_divide
                0x00040d05                _prim_greater
                0x00040db5                _prim_less
                0x00040e6b                _prim_car
                0x00040f08                _prim_cdr
                0x00040fbf                _prim_cons
                0x00041080                _prim_list
                0x0004108a                _prim_is_list
                0x000410e3                _prim_is_null
                0x00041146                _prim_is_number
                0x0004119b                _prim_is_symbol
                0x000411f1                _prim_begin
                0x00041214                _tokenize
                0x000413fb                _atom
                0x00041430                _read_from_tokens
                0x0004158e                _parse
                0x000415e4                _eval
                0x00041b96                _cell_to_string
                0x00041d52                _print_expr
                0x00041d7f                _repl
                0x00041e42                _main
 .text          0x00041e5e       0xbd /Users/kristofer/agondev/release/lib/libc.a(free.c.o)
                0x00041e5e                _free
 .text          0x00041f1b       0x9f /Users/kristofer/agondev/release/lib/libc.a(malloc.c.o)
                0x00041f1b                _malloc
 .text          0x00041fba       0x2f /Users/kristofer/agondev/release/lib/libc.a(putchar.o)
                0x00041fba                _putchar
 .text          0x00041fe9       0x76 /Users/kristofer/agondev/release/lib/libc.a(realloc.c.o)
                0x00041fe9                _realloc
 .text          0x0004205f       0x28 /Users/kristofer/agondev/release/lib/libc.a(sbrk.o)
                0x0004205f                _sbrk
 .text          0x00042087       0x25 /Users/kristofer/agondev/release/lib/libc.a(strcat.o)
                0x00042087                _strcat
 .text          0x000420ac       0x1d /Users/kristofer/agondev/release/lib/libc.a(strcmp.o)
                0x000420ac                _strcmp
 .text          0x000420c9       0x1f /Users/kristofer/agondev/release/lib/libc.a(strdup.o)
                0x000420c9                _strdup
 .text          0x000420e8       0x15 /Users/kristofer/agondev/release/lib/libc.a(strlen.o)
                0x000420e8                _strlen
 .text          0x000420fd       0x93 /Users/kristofer/agondev/release/lib/libc.a(fgets.o)
                0x000420fd                _fgets
 .text          0x00042190       0x52 /Users/kristofer/agondev/release/lib/libc.a(files.o)
                0x00042190                __stdio_init
 .text          0x000421e2       0xb7 /Users/kristofer/agondev/release/lib/libc.a(fputc.o)
                0x000421e2                _fputc
                0x00042272                _fput_char
 .text          0x00042299       0xd4 /Users/kristofer/agondev/release/lib/libc.a(fwrite.o)
                0x00042299                _fwrite
 .text          0x0004236d     0x13b8 /Users/kristofer/agondev/release/lib/libc.a(nanoprintf.o)
                0x0004236d                _npf_vpprintf
                0x000434ae                _npf_pprintf
                0x000434d6                _npf_snprintf
                0x000434fe                _npf_vsnprintf
                0x000435ab                _vprintf
                0x000435db                _printf
                0x000435fa                _fprintf
                0x0004361d                _vfprintf
                0x00043652                _vsnprintf
                0x000436b5                _snprintf
                0x000436dd                _vsprintf
                0x000436fc                _sprintf
 .text          0x00043725      0x333 /Users/kristofer/agondev/release/lib/libc.a(strtof.o)
                0x00043725                _strtod
                0x00043725                _strtof
 .text          0x00043a58       0x8d /Users/kristofer/agondev/release/lib/libc.a(strtok.o)
                0x00043a58                _strtok
 .text          0x00043ae5        0xf /Users/kristofer/agondev/release/lib/libc.a(isspace.o)
                0x00043ae5                _isspace
 .text          0x00043af4       0x1c /Users/kristofer/agondev/release/lib/libc.a(memcpy.o)
                0x00043af4                _memcpy
 .text          0x00043b10       0x18 /Users/kristofer/agondev/release/lib/libc.a(mos_fputc.o)
                0x00043b10                _mos_fputc
 .text          0x00043b28       0x1c /Users/kristofer/agondev/release/lib/libc.a(mos_fwrite.o)
                0x00043b28                _mos_fwrite
 .text          0x00043b44        0x7 /Users/kristofer/agondev/release/lib/libc.a(outchar.o)
                0x00043b44                _outchar
 .text          0x00043b4b       0x2d /Users/kristofer/agondev/release/lib/libc.a(strpbrk.o)
                0x00043b4b                _strpbrk
 .text          0x00043b78       0x2c /Users/kristofer/agondev/release/lib/libc.a(strspn.o)
                0x00043b78                _strspn
 .text          0x00043ba4        0x0 /Users/kristofer/agondev/release/lib/libc.a(errno.o)
 .text          0x00043ba4       0xdf /Users/kristofer/agondev/release/lib/libc.a(fgetc.o)
                0x00043ba4                _fgetc
 .text          0x00043c83       0x3d /Users/kristofer/agondev/release/lib/libc.a(ungetc.o)
                0x00043c83                _ungetc
 .text          0x00043cc0       0x15 /Users/kristofer/agondev/release/lib/libc.a(mos_fgetc.o)
                0x00043cc0                _mos_fgetc
 .text          0x00043cd5       0x1c /Users/kristofer/agondev/release/lib/libcrt.a(and.o)
                0x00043cd5                __land
                0x00043cda                __iand
                0x00043cdb                __iand.hijack_land
 .text          0x00043cf1        0xa /Users/kristofer/agondev/release/lib/libcrt.a(bshru.o)
                0x00043cf1                __bshru
 .text          0x00043cfb       0x2c /Users/kristofer/agondev/release/lib/libcrt.a(crt0.o)
                0x00043cfb                _atexit
                0x00043cfb                _on_exit
 .text          0x00043d27        0xe /Users/kristofer/agondev/release/lib/libcrt.a(frameset.o)
                0x00043d27                __frameset
 .text          0x00043d35        0xb /Users/kristofer/agondev/release/lib/libcrt.a(frameset0.o)
                0x00043d35                __frameset0
 .text          0x00043d40        0x8 /Users/kristofer/agondev/release/lib/libcrt.a(idivu.o)
                0x00043d40                __idivu
 .text          0x00043d48       0x18 /Users/kristofer/agondev/release/lib/libcrt.a(idvrmu.o)
                0x00043d48                __idvrmu
                0x00043d4c                __idvrmu.hijack_a_iters_ude_dividend
 .text          0x00043d60       0x30 /Users/kristofer/agondev/release/lib/libcrt.a(imulu.o)
                0x00043d60                __imuls
                0x00043d60                __imulu
 .text          0x00043d90        0x7 /Users/kristofer/agondev/release/lib/libcrt.a(inchar.o)
                0x00043d90                _inchar
 .text          0x00043d97        0x1 /Users/kristofer/agondev/release/lib/libcrt.a(indcallhl.o)
                0x00043d97                __indcallhl
 .text          0x00043d98        0x9 /Users/kristofer/agondev/release/lib/libcrt.a(ineg_sneg.o)
                0x00043d98                __ineg
                0x00043d98                __sneg
 .text          0x00043da1       0x26 /Users/kristofer/agondev/release/lib/libcrt.a(ishl.o)
                0x00043da1                __sshl
                0x00043da1                __ishl
 .text          0x00043dc7       0x41 /Users/kristofer/agondev/release/lib/libcrt.a(ishrs.o)
                0x00043dc7                __ishru
                0x00043dcc                __ishrs
 .text          0x00043e08        0x6 /Users/kristofer/agondev/release/lib/libcrt.a(ladd.o)
                0x00043e08                __ladd
 .text          0x00043e0e        0x8 /Users/kristofer/agondev/release/lib/libcrt.a(lcmpu.o)
                0x00043e0e                __lcmpu
 .text          0x00043e16        0xb /Users/kristofer/agondev/release/lib/libcrt.a(lcmpzero.o)
                0x00043e16                __lcmpzero
 .text          0x00043e21        0xa /Users/kristofer/agondev/release/lib/libcrt.a(ldivu.o)
                0x00043e21                __ldivu
 .text          0x00043e2b       0x28 /Users/kristofer/agondev/release/lib/libcrt.a(ldvrmu.o)
                0x00043e2b                __ldvrmu
 .text          0x00043e53       0x5c /Users/kristofer/agondev/release/lib/libcrt.a(lmulu.o)
                0x00043e53                __lmuls
                0x00043e53                __lmulu
 .text          0x00043eaf        0xd /Users/kristofer/agondev/release/lib/libcrt.a(lneg.o)
                0x00043eaf                __lneg
 .text          0x00043ebc        0xd /Users/kristofer/agondev/release/lib/libcrt.a(lshl.o)
                0x00043ebc                __lshl
 .text          0x00043ec9       0x10 /Users/kristofer/agondev/release/lib/libcrt.a(lshru.o)
                0x00043ec9                __lshru
 .text          0x00043ed9        0x9 /Users/kristofer/agondev/release/lib/libcrt.a(sand.o)
                0x00043ed9                __sand
 .text          0x00043ee2        0xf /Users/kristofer/agondev/release/lib/libcrt.a(setflag.o)
                0x00043ee2                __setflag
 .text          0x00043ef1        0x9 /Users/kristofer/agondev/release/lib/libcrt.a(sor.o)
                0x00043ef1                __sor
 .text          0x00043efa        0xd /Users/kristofer/agondev/release/lib/libcrt.a(sshru.o)
                0x00043efa                __sshru
 .text          0x00043f07       0x1b /Users/kristofer/agondev/release/lib/libcrt.a(xor.o)
                0x00043f07                __lxor
                0x00043f0b                __ixor
 .text          0x00043f22       0x1b /Users/kristofer/agondev/release/lib/libcrt.a(lshrs.o)
                0x00043f22                __lshrs
                0x00043f2e                __lshrs.hijack_lshru
 .text          0x00043f3d       0x5f /Users/kristofer/agondev/release/lib/libfp.a(fpadd.o)
                0x00043f3d                __fadd
 .text          0x00043f9c       0x1d /Users/kristofer/agondev/release/lib/libfp.a(fpcmp.o)
                0x00043f9c                __fcmp
 .text          0x00043fb9       0x7e /Users/kristofer/agondev/release/lib/libfp.a(fpdiv.o)
                0x00043fb9                __fdiv
 .text          0x00044037       0xa1 /Users/kristofer/agondev/release/lib/libfp.a(fpftol.o)
                0x00044037                __dtoul
                0x00044037                __ftol
                0x00044037                __dtol
                0x00044037                __ftoul
 .text          0x000440d8       0x27 /Users/kristofer/agondev/release/lib/libfp.a(fpltof.o)
                0x000440d8                __ltod
                0x000440d8                __ltof
 .text          0x000440ff       0xc0 /Users/kristofer/agondev/release/lib/libfp.a(fpmul.o)
                0x000440ff                __fmul
 .text          0x000441bf        0xd /Users/kristofer/agondev/release/lib/libfp.a(fpneg.o)
                0x000441bf                __fneg
 .text          0x000441cc       0x77 /Users/kristofer/agondev/release/lib/libfp.a(fppack.o)
                0x000441cc                __fppack
 .text          0x00044243       0x11 /Users/kristofer/agondev/release/lib/libfp.a(fpsub.o)
                0x00044243                __fsub
 .text          0x00044254       0x25 /Users/kristofer/agondev/release/lib/libfp.a(fpupop1.o)
                0x00044254                __fpupop1
 .text          0x00044279       0x18 /Users/kristofer/agondev/release/lib/libfp.a(fpupop2.o)
                0x00044279                __fpupop2
 .text          0x00044291        0xd /Users/kristofer/agondev/release/lib/libcrt.a(lcmps.o)
                0x00044291                __lcmps

.init_array     0x0004429e        0x0
 *(.init_array)
 .init_array    0x0004429e        0x0 /Users/kristofer/agondev/release/lib/libcrt.a(crt0.o)

.ctors          0x0004429e        0x0
 *(.ctors)
 .ctors         0x0004429e        0x0 /Users/kristofer/agondev/release/lib/libcrt.a(crt0.o)

.dtors          0x0004429e        0x0
 *(.dtors)
 .dtors         0x0004429e        0x0 /Users/kristofer/agondev/release/lib/libcrt.a(crt0.o)

.comment        0x00000000      0x619
 .comment       0x00000000       0x71 obj/lis-py3.o
 .comment       0x00000071       0x6a /Users/kristofer/agondev/release/lib/libc.a(free.c.o)
 .comment       0x000000db       0x6a /Users/kristofer/agondev/release/lib/libc.a(malloc.c.o)
 .comment       0x00000145       0x6a /Users/kristofer/agondev/release/lib/libc.a(realloc.c.o)
 .comment       0x000001af       0x71 /Users/kristofer/agondev/release/lib/libc.a(fgets.o)
 .comment       0x00000220       0x71 /Users/kristofer/agondev/release/lib/libc.a(files.o)
 .comment       0x00000291       0x71 /Users/kristofer/agondev/release/lib/libc.a(fputc.o)
 .comment       0x00000302       0x71 /Users/kristofer/agondev/release/lib/libc.a(fwrite.o)
 .comment       0x00000373       0x71 /Users/kristofer/agondev/release/lib/libc.a(nanoprintf.o)
 .comment       0x000003e4       0x71 /Users/kristofer/agondev/release/lib/libc.a(strtof.o)
 .comment       0x00000455       0x71 /Users/kristofer/agondev/release/lib/libc.a(strtok.o)
 .comment       0x000004c6       0x71 /Users/kristofer/agondev/release/lib/libc.a(errno.o)
 .comment       0x00000537       0x71 /Users/kristofer/agondev/release/lib/libc.a(fgetc.o)
 .comment       0x000005a8       0x71 /Users/kristofer/agondev/release/lib/libc.a(ungetc.o)

.fini_array     0x0004429e        0x0
 *(.fini_array)
 .fini_array    0x0004429e        0x0 /Users/kristofer/agondev/release/lib/libcrt.a(crt0.o)

.rodata         0x0004429e      0x717
 *(.rodata)
 .rodata        0x0004429e      0x660 obj/lis-py3.o
 .rodata        0x000448fe       0xab /Users/kristofer/agondev/release/lib/libc.a(nanoprintf.o)
 .rodata        0x000449a9        0xc /Users/kristofer/agondev/release/lib/libcrt.a(crt0.o)

.data           0x000449b5       0x48
 *(.data)
 .data          0x000449b5        0x0 obj/lis-py3.o
 .data          0x000449b5        0x0 /Users/kristofer/agondev/release/lib/libc.a(free.c.o)
 .data          0x000449b5        0x0 /Users/kristofer/agondev/release/lib/libc.a(malloc.c.o)
 .data          0x000449b5        0x0 /Users/kristofer/agondev/release/lib/libc.a(putchar.o)
 .data          0x000449b5        0x0 /Users/kristofer/agondev/release/lib/libc.a(realloc.c.o)
 .data          0x000449b5        0x3 /Users/kristofer/agondev/release/lib/libc.a(sbrk.o)
                0x000449b5                __sbrkbase
 .data          0x000449b8        0x0 /Users/kristofer/agondev/release/lib/libc.a(strcat.o)
 .data          0x000449b8        0x0 /Users/kristofer/agondev/release/lib/libc.a(strcmp.o)
 .data          0x000449b8        0x0 /Users/kristofer/agondev/release/lib/libc.a(strdup.o)
 .data          0x000449b8        0x0 /Users/kristofer/agondev/release/lib/libc.a(strlen.o)
 .data          0x000449b8        0x0 /Users/kristofer/agondev/release/lib/libc.a(fgets.o)
 .data          0x000449b8        0xf /Users/kristofer/agondev/release/lib/libc.a(files.o)
                0x000449b8                _stdin
                0x000449bd                _stdout
                0x000449c2                _stderr
 .data          0x000449c7        0x0 /Users/kristofer/agondev/release/lib/libc.a(fputc.o)
 .data          0x000449c7        0x0 /Users/kristofer/agondev/release/lib/libc.a(fwrite.o)
 .data          0x000449c7        0x0 /Users/kristofer/agondev/release/lib/libc.a(nanoprintf.o)
 .data          0x000449c7        0x0 /Users/kristofer/agondev/release/lib/libc.a(strtof.o)
 .data          0x000449c7        0x0 /Users/kristofer/agondev/release/lib/libc.a(strtok.o)
 .data          0x000449c7        0x0 /Users/kristofer/agondev/release/lib/libc.a(isspace.o)
 .data          0x000449c7        0x0 /Users/kristofer/agondev/release/lib/libc.a(memcpy.o)
 .data          0x000449c7        0x0 /Users/kristofer/agondev/release/lib/libc.a(mos_fputc.o)
 .data          0x000449c7        0x0 /Users/kristofer/agondev/release/lib/libc.a(mos_fwrite.o)
 .data          0x000449c7        0x0 /Users/kristofer/agondev/release/lib/libc.a(outchar.o)
 .data          0x000449c7        0x0 /Users/kristofer/agondev/release/lib/libc.a(strpbrk.o)
 .data          0x000449c7        0x0 /Users/kristofer/agondev/release/lib/libc.a(strspn.o)
 .data          0x000449c7        0x0 /Users/kristofer/agondev/release/lib/libc.a(errno.o)
 .data          0x000449c7        0x0 /Users/kristofer/agondev/release/lib/libc.a(fgetc.o)
 .data          0x000449c7        0x0 /Users/kristofer/agondev/release/lib/libc.a(ungetc.o)
 .data          0x000449c7        0x0 /Users/kristofer/agondev/release/lib/libc.a(mos_fgetc.o)
 .data          0x000449c7        0x0 /Users/kristofer/agondev/release/lib/libcrt.a(and.o)
 .data          0x000449c7        0x0 /Users/kristofer/agondev/release/lib/libcrt.a(bshru.o)
 .data          0x000449c7       0x36 /Users/kristofer/agondev/release/lib/libcrt.a(crt0.o)
                0x000449fa                _exit.sp
 .data          0x000449fd        0x0 /Users/kristofer/agondev/release/lib/libcrt.a(frameset.o)
 .data          0x000449fd        0x0 /Users/kristofer/agondev/release/lib/libcrt.a(frameset0.o)
 .data          0x000449fd        0x0 /Users/kristofer/agondev/release/lib/libcrt.a(idivu.o)
 .data          0x000449fd        0x0 /Users/kristofer/agondev/release/lib/libcrt.a(idvrmu.o)
 .data          0x000449fd        0x0 /Users/kristofer/agondev/release/lib/libcrt.a(imulu.o)
 .data          0x000449fd        0x0 /Users/kristofer/agondev/release/lib/libcrt.a(inchar.o)
 .data          0x000449fd        0x0 /Users/kristofer/agondev/release/lib/libcrt.a(indcallhl.o)
 .data          0x000449fd        0x0 /Users/kristofer/agondev/release/lib/libcrt.a(ineg_sneg.o)
 .data          0x000449fd        0x0 /Users/kristofer/agondev/release/lib/libcrt.a(ishl.o)
 .data          0x000449fd        0x0 /Users/kristofer/agondev/release/lib/libcrt.a(ishrs.o)
 .data          0x000449fd        0x0 /Users/kristofer/agondev/release/lib/libcrt.a(ladd.o)
 .data          0x000449fd        0x0 /Users/kristofer/agondev/release/lib/libcrt.a(lcmpu.o)
 .data          0x000449fd        0x0 /Users/kristofer/agondev/release/lib/libcrt.a(lcmpzero.o)
 .data          0x000449fd        0x0 /Users/kristofer/agondev/release/lib/libcrt.a(ldivu.o)
 .data          0x000449fd        0x0 /Users/kristofer/agondev/release/lib/libcrt.a(ldvrmu.o)
 .data          0x000449fd        0x0 /Users/kristofer/agondev/release/lib/libcrt.a(lmulu.o)
 .data          0x000449fd        0x0 /Users/kristofer/agondev/release/lib/libcrt.a(lneg.o)
 .data          0x000449fd        0x0 /Users/kristofer/agondev/release/lib/libcrt.a(lshl.o)
 .data          0x000449fd        0x0 /Users/kristofer/agondev/release/lib/libcrt.a(lshru.o)
 .data          0x000449fd        0x0 /Users/kristofer/agondev/release/lib/libcrt.a(sand.o)
 .data          0x000449fd        0x0 /Users/kristofer/agondev/release/lib/libcrt.a(setflag.o)
 .data          0x000449fd        0x0 /Users/kristofer/agondev/release/lib/libcrt.a(sor.o)
 .data          0x000449fd        0x0 /Users/kristofer/agondev/release/lib/libcrt.a(sshru.o)
 .data          0x000449fd        0x0 /Users/kristofer/agondev/release/lib/libcrt.a(xor.o)
 .data          0x000449fd        0x0 /Users/kristofer/agondev/release/lib/libcrt.a(lshrs.o)
 .data          0x000449fd        0x0 /Users/kristofer/agondev/release/lib/libfp.a(fpadd.o)
 .data          0x000449fd        0x0 /Users/kristofer/agondev/release/lib/libfp.a(fpcmp.o)
 .data          0x000449fd        0x0 /Users/kristofer/agondev/release/lib/libfp.a(fpdiv.o)
 .data          0x000449fd        0x0 /Users/kristofer/agondev/release/lib/libfp.a(fpftol.o)
 .data          0x000449fd        0x0 /Users/kristofer/agondev/release/lib/libfp.a(fpltof.o)
 .data          0x000449fd        0x0 /Users/kristofer/agondev/release/lib/libfp.a(fpmul.o)
 .data          0x000449fd        0x0 /Users/kristofer/agondev/release/lib/libfp.a(fpneg.o)
 .data          0x000449fd        0x0 /Users/kristofer/agondev/release/lib/libfp.a(fppack.o)
 .data          0x000449fd        0x0 /Users/kristofer/agondev/release/lib/libfp.a(fpsub.o)
 .data          0x000449fd        0x0 /Users/kristofer/agondev/release/lib/libfp.a(fpupop1.o)
 .data          0x000449fd        0x0 /Users/kristofer/agondev/release/lib/libfp.a(fpupop2.o)
 .data          0x000449fd        0x0 /Users/kristofer/agondev/release/lib/libcrt.a(lcmps.o)

.bss            0x000449fd       0x37
                0x000449fd                        bss_start = .
 *(.bss .bss*)
 .bss           0x000449fd        0x3 obj/lis-py3.o
                0x000449fd                _global_env
 .bss           0x00044a00        0x0 /Users/kristofer/agondev/release/lib/libc.a(free.c.o)
 .bss           0x00044a00        0x6 /Users/kristofer/agondev/release/lib/libc.a(malloc.c.o)
                0x00044a00                __alloc_base
 .bss           0x00044a06        0x0 /Users/kristofer/agondev/release/lib/libc.a(putchar.o)
 .bss           0x00044a06        0x0 /Users/kristofer/agondev/release/lib/libc.a(realloc.c.o)
 .bss           0x00044a06        0x0 /Users/kristofer/agondev/release/lib/libc.a(sbrk.o)
 .bss           0x00044a06        0x0 /Users/kristofer/agondev/release/lib/libc.a(strcat.o)
 .bss           0x00044a06        0x0 /Users/kristofer/agondev/release/lib/libc.a(strcmp.o)
 .bss           0x00044a06        0x0 /Users/kristofer/agondev/release/lib/libc.a(strdup.o)
 .bss           0x00044a06        0x0 /Users/kristofer/agondev/release/lib/libc.a(strlen.o)
 .bss           0x00044a06        0x0 /Users/kristofer/agondev/release/lib/libc.a(fgets.o)
 .bss           0x00044a06       0x28 /Users/kristofer/agondev/release/lib/libc.a(files.o)
                0x00044a06                __file_streams
 .bss           0x00044a2e        0x0 /Users/kristofer/agondev/release/lib/libc.a(fputc.o)
 .bss           0x00044a2e        0x0 /Users/kristofer/agondev/release/lib/libc.a(fwrite.o)
 .bss           0x00044a2e        0x0 /Users/kristofer/agondev/release/lib/libc.a(nanoprintf.o)
 .bss           0x00044a2e        0x0 /Users/kristofer/agondev/release/lib/libc.a(strtof.o)
 .bss           0x00044a2e        0x3 /Users/kristofer/agondev/release/lib/libc.a(strtok.o)
 .bss           0x00044a31        0x0 /Users/kristofer/agondev/release/lib/libc.a(isspace.o)
 .bss           0x00044a31        0x0 /Users/kristofer/agondev/release/lib/libc.a(memcpy.o)
 .bss           0x00044a31        0x0 /Users/kristofer/agondev/release/lib/libc.a(mos_fputc.o)
 .bss           0x00044a31        0x0 /Users/kristofer/agondev/release/lib/libc.a(mos_fwrite.o)
 .bss           0x00044a31        0x0 /Users/kristofer/agondev/release/lib/libc.a(outchar.o)
 .bss           0x00044a31        0x0 /Users/kristofer/agondev/release/lib/libc.a(strpbrk.o)
 .bss           0x00044a31        0x0 /Users/kristofer/agondev/release/lib/libc.a(strspn.o)
 .bss           0x00044a31        0x3 /Users/kristofer/agondev/release/lib/libc.a(errno.o)
                0x00044a31                _errno
 .bss           0x00044a34        0x0 /Users/kristofer/agondev/release/lib/libc.a(fgetc.o)
 .bss           0x00044a34        0x0 /Users/kristofer/agondev/release/lib/libc.a(ungetc.o)
 .bss           0x00044a34        0x0 /Users/kristofer/agondev/release/lib/libc.a(mos_fgetc.o)
 .bss           0x00044a34        0x0 /Users/kristofer/agondev/release/lib/libcrt.a(and.o)
 .bss           0x00044a34        0x0 /Users/kristofer/agondev/release/lib/libcrt.a(bshru.o)
 .bss           0x00044a34        0x0 /Users/kristofer/agondev/release/lib/libcrt.a(crt0.o)
 .bss           0x00044a34        0x0 /Users/kristofer/agondev/release/lib/libcrt.a(frameset.o)
 .bss           0x00044a34        0x0 /Users/kristofer/agondev/release/lib/libcrt.a(frameset0.o)
 .bss           0x00044a34        0x0 /Users/kristofer/agondev/release/lib/libcrt.a(idivu.o)
 .bss           0x00044a34        0x0 /Users/kristofer/agondev/release/lib/libcrt.a(idvrmu.o)
 .bss           0x00044a34        0x0 /Users/kristofer/agondev/release/lib/libcrt.a(imulu.o)
 .bss           0x00044a34        0x0 /Users/kristofer/agondev/release/lib/libcrt.a(inchar.o)
 .bss           0x00044a34        0x0 /Users/kristofer/agondev/release/lib/libcrt.a(indcallhl.o)
 .bss           0x00044a34        0x0 /Users/kristofer/agondev/release/lib/libcrt.a(ineg_sneg.o)
 .bss           0x00044a34        0x0 /Users/kristofer/agondev/release/lib/libcrt.a(ishl.o)
 .bss           0x00044a34        0x0 /Users/kristofer/agondev/release/lib/libcrt.a(ishrs.o)
 .bss           0x00044a34        0x0 /Users/kristofer/agondev/release/lib/libcrt.a(ladd.o)
 .bss           0x00044a34        0x0 /Users/kristofer/agondev/release/lib/libcrt.a(lcmpu.o)
 .bss           0x00044a34        0x0 /Users/kristofer/agondev/release/lib/libcrt.a(lcmpzero.o)
 .bss           0x00044a34        0x0 /Users/kristofer/agondev/release/lib/libcrt.a(ldivu.o)
 .bss           0x00044a34        0x0 /Users/kristofer/agondev/release/lib/libcrt.a(ldvrmu.o)
 .bss           0x00044a34        0x0 /Users/kristofer/agondev/release/lib/libcrt.a(lmulu.o)
 .bss           0x00044a34        0x0 /Users/kristofer/agondev/release/lib/libcrt.a(lneg.o)
 .bss           0x00044a34        0x0 /Users/kristofer/agondev/release/lib/libcrt.a(lshl.o)
 .bss           0x00044a34        0x0 /Users/kristofer/agondev/release/lib/libcrt.a(lshru.o)
 .bss           0x00044a34        0x0 /Users/kristofer/agondev/release/lib/libcrt.a(sand.o)
 .bss           0x00044a34        0x0 /Users/kristofer/agondev/release/lib/libcrt.a(setflag.o)
 .bss           0x00044a34        0x0 /Users/kristofer/agondev/release/lib/libcrt.a(sor.o)
 .bss           0x00044a34        0x0 /Users/kristofer/agondev/release/lib/libcrt.a(sshru.o)
 .bss           0x00044a34        0x0 /Users/kristofer/agondev/release/lib/libcrt.a(xor.o)
 .bss           0x00044a34        0x0 /Users/kristofer/agondev/release/lib/libcrt.a(lshrs.o)
 .bss           0x00044a34        0x0 /Users/kristofer/agondev/release/lib/libfp.a(fpadd.o)
 .bss           0x00044a34        0x0 /Users/kristofer/agondev/release/lib/libfp.a(fpcmp.o)
 .bss           0x00044a34        0x0 /Users/kristofer/agondev/release/lib/libfp.a(fpdiv.o)
 .bss           0x00044a34        0x0 /Users/kristofer/agondev/release/lib/libfp.a(fpftol.o)
 .bss           0x00044a34        0x0 /Users/kristofer/agondev/release/lib/libfp.a(fpltof.o)
 .bss           0x00044a34        0x0 /Users/kristofer/agondev/release/lib/libfp.a(fpmul.o)
 .bss           0x00044a34        0x0 /Users/kristofer/agondev/release/lib/libfp.a(fpneg.o)
 .bss           0x00044a34        0x0 /Users/kristofer/agondev/release/lib/libfp.a(fppack.o)
 .bss           0x00044a34        0x0 /Users/kristofer/agondev/release/lib/libfp.a(fpsub.o)
 .bss           0x00044a34        0x0 /Users/kristofer/agondev/release/lib/libfp.a(fpupop1.o)
 .bss           0x00044a34        0x0 /Users/kristofer/agondev/release/lib/libfp.a(fpupop2.o)
 .bss           0x00044a34        0x0 /Users/kristofer/agondev/release/lib/libcrt.a(lcmps.o)
                0x00044a34                        bss_end = .
                0x000b0000                        __stack = (RAM_START + RAM_SIZE)
                0x000449fd                        ___low_bss = bss_start
                0x00000037                        ___len_bss = SIZEOF (.bss)
                0x00044a34                        ___heapbot = bss_end
                0x000b0000                        ___heaptop = (RAM_START + RAM_SIZE)
                0x00000001                        ___run_clearbss = (___len_bss > 0x0)
                0x00000000                        ___init_array_count = (SIZEOF (.init_array) / 0x3)
                0x00000000                        ___ctors_count = (SIZEOF (.ctors) / 0x3)
                0x00000000                        ___dtors_count = (SIZEOF (.dtors) / 0x3)
                0x00000000                        ___fini_array_count = (SIZEOF (.fini_array) / 0x3)
                0x00000000                        ___init_count = (___init_array_count + ___ctors_count)
                0x00000000                        ___fini_count = (___dtors_count + ___fini_array_count)
                0x00000000                        ___run_init = (___init_count > 0x0)
                0x00000000                        ___run_fini = (___fini_count > 0x0)
                0x00000100                        ___init_count_a = ((((___init_count - 0x1) >> 0x10) & 0xff) + 0x1)
                0x00000100                        ___init_count_b = (((___init_count - 0x1) & 0xff) + 0x1)
                0x00000100                        ___init_count_c = ((((___init_count - 0x1) >> 0x8) & 0xff) + 0x1)
                0x00000100                        ___fini_count_a = ((((___fini_count - 0x1) >> 0x10) & 0xff) + 0x1)
                0x00000100                        ___fini_count_b = (((___fini_count - 0x1) & 0xff) + 0x1)
                0x00000100                        ___fini_count_c = ((((___fini_count - 0x1) >> 0x8) & 0xff) + 0x1)
                0x0004429e                        ___init_array_functions = (SIZEOF (.init_array) + ADDR (.init_array))
                0x0004429e                        ___init_ctors_functions = (SIZEOF (.ctors) + ADDR (.ctors))
                0x0004429e                        ___fini_dtors_functions = (SIZEOF (.dtors) + ADDR (.dtors))
                0x0004429e                        ___fini_array_functions = (SIZEOF (.fini_array) + ADDR (.fini_array))
LOAD obj/lis-py3.o
START GROUP
LOAD /Users/kristofer/agondev/release/lib/libc.a
LOAD /Users/kristofer/agondev/release/lib/libagon.a
LOAD /Users/kristofer/agondev/release/lib/libcrt.a
LOAD /Users/kristofer/agondev/release/lib/libfp.a
END GROUP
OUTPUT(bin/lis-py3.c.bin binary)
