Archive member included to satisfy reference by file (symbol)

/Users/kristofer/agondev/release/lib/libc.a(free.c.o)
                              obj/kilo.o (_free)
/Users/kristofer/agondev/release/lib/libc.a(isprint.o)
                              obj/kilo.o (_isprint)
/Users/kristofer/agondev/release/lib/libc.a(malloc.c.o)
                              obj/kilo.o (_malloc)
/Users/kristofer/agondev/release/lib/libc.a(memcpy.o)
                              obj/kilo.o (_memcpy)
/Users/kristofer/agondev/release/lib/libc.a(memmove.o)
                              obj/kilo.o (_memmove)
/Users/kristofer/agondev/release/lib/libc.a(memset.o)
                              obj/kilo.o (_memset)
/Users/kristofer/agondev/release/lib/libc.a(puts.o)
                              obj/kilo.o (_puts)
/Users/kristofer/agondev/release/lib/libc.a(realloc.c.o)
                              obj/kilo.o (_realloc)
/Users/kristofer/agondev/release/lib/libc.a(sbrk.o)
                              /Users/kristofer/agondev/release/lib/libc.a(malloc.c.o) (_sbrk)
/Users/kristofer/agondev/release/lib/libc.a(strlen.o)
                              obj/kilo.o (_strlen)
/Users/kristofer/agondev/release/lib/libc.a(strstr.o)
                              obj/kilo.o (_strstr)
/Users/kristofer/agondev/release/lib/libc.a(errno.o)
                              obj/kilo.o (_errno)
/Users/kristofer/agondev/release/lib/libc.a(fclose.o)
                              obj/kilo.o (_fclose)
/Users/kristofer/agondev/release/lib/libc.a(fflush.o)
                              obj/kilo.o (_fflush)
/Users/kristofer/agondev/release/lib/libc.a(fgetc.o)
                              obj/kilo.o (_fgetc)
/Users/kristofer/agondev/release/lib/libc.a(files.o)
                              obj/kilo.o (_stdin)
/Users/kristofer/agondev/release/lib/libc.a(fopen.o)
                              obj/kilo.o (_fopen)
/Users/kristofer/agondev/release/lib/libc.a(fread.o)
                              obj/kilo.o (_fread)
/Users/kristofer/agondev/release/lib/libc.a(fseek.o)
                              /Users/kristofer/agondev/release/lib/libc.a(fopen.o) (_fseek)
/Users/kristofer/agondev/release/lib/libc.a(fwrite.o)
                              obj/kilo.o (_fwrite)
/Users/kristofer/agondev/release/lib/libc.a(nanoprintf.o)
                              obj/kilo.o (_fprintf)
/Users/kristofer/agondev/release/lib/libc.a(time.o)
                              obj/kilo.o (_time)
/Users/kristofer/agondev/release/lib/libc.a(ungetc.o)
                              /Users/kristofer/agondev/release/lib/libc.a(fgetc.o) (_ungetc)
/Users/kristofer/agondev/release/lib/libc.a(mos_fclose.o)
                              /Users/kristofer/agondev/release/lib/libc.a(fclose.o) (_mos_fclose)
/Users/kristofer/agondev/release/lib/libc.a(mos_fgetc.o)
                              /Users/kristofer/agondev/release/lib/libc.a(fgetc.o) (_mos_fgetc)
/Users/kristofer/agondev/release/lib/libc.a(mos_flseek.o)
                              /Users/kristofer/agondev/release/lib/libc.a(fseek.o) (_mos_flseek)
/Users/kristofer/agondev/release/lib/libc.a(mos_fopen.o)
                              /Users/kristofer/agondev/release/lib/libc.a(fopen.o) (_mos_fopen)
/Users/kristofer/agondev/release/lib/libc.a(mos_fread.o)
                              /Users/kristofer/agondev/release/lib/libc.a(fread.o) (_mos_fread)
/Users/kristofer/agondev/release/lib/libc.a(mos_fwrite.o)
                              /Users/kristofer/agondev/release/lib/libc.a(fwrite.o) (_mos_fwrite)
/Users/kristofer/agondev/release/lib/libc.a(mos_getfil.o)
                              /Users/kristofer/agondev/release/lib/libc.a(fseek.o) (_mos_getfil)
/Users/kristofer/agondev/release/lib/libc.a(mos_getrtc.o)
                              /Users/kristofer/agondev/release/lib/libc.a(time.o) (_mos_getrtc)
/Users/kristofer/agondev/release/lib/libc.a(mos_getsysvar_rtc.o)
                              /Users/kristofer/agondev/release/lib/libc.a(time.o) (_getsysvar_rtc)
/Users/kristofer/agondev/release/lib/libc.a(putchar.o)
                              /Users/kristofer/agondev/release/lib/libc.a(puts.o) (_putchar)
/Users/kristofer/agondev/release/lib/libc.a(strchr.o)
                              /Users/kristofer/agondev/release/lib/libc.a(fopen.o) (_strchr)
/Users/kristofer/agondev/release/lib/libc.a(fputc.o)
                              /Users/kristofer/agondev/release/lib/libc.a(nanoprintf.o) (_fputc)
/Users/kristofer/agondev/release/lib/libc.a(mktime.o)
                              /Users/kristofer/agondev/release/lib/libc.a(time.o) (_mktime)
/Users/kristofer/agondev/release/lib/libc.a(isleap.c.o)
                              /Users/kristofer/agondev/release/lib/libc.a(mktime.o) (___isleap)
/Users/kristofer/agondev/release/lib/libc.a(mos_fputc.o)
                              /Users/kristofer/agondev/release/lib/libc.a(fputc.o) (_mos_fputc)
/Users/kristofer/agondev/release/lib/libc.a(outchar.o)
                              /Users/kristofer/agondev/release/lib/libc.a(putchar.o) (_outchar)
/Users/kristofer/agondev/release/lib/libagon.a(vdp_clear_screen.o)
                              obj/kilo.o (_vdp_clear_screen)
/Users/kristofer/agondev/release/lib/libagon.a(vdp_cursor_enable.o)
                              obj/kilo.o (_vdp_cursor_enable)
/Users/kristofer/agondev/release/lib/libagon.a(vdp_cursor_tab.o)
                              obj/kilo.o (_vdp_cursor_tab)
/Users/kristofer/agondev/release/lib/libagon.a(vdp_set_text_colour.o)
                              obj/kilo.o (_vdp_set_text_colour)
/Users/kristofer/agondev/release/lib/libcrt.a(and.o)
                              /Users/kristofer/agondev/release/lib/libc.a(nanoprintf.o) (__land)
/Users/kristofer/agondev/release/lib/libcrt.a(bshru.o)
                              /Users/kristofer/agondev/release/lib/libc.a(nanoprintf.o) (__bshru)
/Users/kristofer/agondev/release/lib/libcrt.a(crt0.o)
                              (__start)
/Users/kristofer/agondev/release/lib/libcrt.a(frameset.o)
                              obj/kilo.o (__frameset)
/Users/kristofer/agondev/release/lib/libcrt.a(frameset0.o)
                              obj/kilo.o (__frameset0)
/Users/kristofer/agondev/release/lib/libcrt.a(idivs.o)
                              obj/kilo.o (__idivs)
/Users/kristofer/agondev/release/lib/libcrt.a(idivu.o)
                              /Users/kristofer/agondev/release/lib/libc.a(fread.o) (__idivu)
/Users/kristofer/agondev/release/lib/libcrt.a(idvrms.o)
                              /Users/kristofer/agondev/release/lib/libcrt.a(idivs.o) (__idvrms)
/Users/kristofer/agondev/release/lib/libcrt.a(idvrmu.o)
                              /Users/kristofer/agondev/release/lib/libcrt.a(idivu.o) (__idvrmu)
/Users/kristofer/agondev/release/lib/libcrt.a(imulu.o)
                              obj/kilo.o (__imulu)
/Users/kristofer/agondev/release/lib/libcrt.a(inchar.o)
                              /Users/kristofer/agondev/release/lib/libc.a(fgetc.o) (_inchar)
/Users/kristofer/agondev/release/lib/libcrt.a(indcallhl.o)
                              /Users/kristofer/agondev/release/lib/libc.a(nanoprintf.o) (__indcallhl)
/Users/kristofer/agondev/release/lib/libcrt.a(ineg_sneg.o)
                              /Users/kristofer/agondev/release/lib/libcrt.a(idvrms.o) (__ineg)
/Users/kristofer/agondev/release/lib/libcrt.a(inot.o)
                              obj/kilo.o (__inot)
/Users/kristofer/agondev/release/lib/libcrt.a(irems.o)
                              obj/kilo.o (__irems)
/Users/kristofer/agondev/release/lib/libcrt.a(ishl.o)
                              obj/kilo.o (__ishl)
/Users/kristofer/agondev/release/lib/libcrt.a(ishrs.o)
                              /Users/kristofer/agondev/release/lib/libc.a(nanoprintf.o) (__ishru)
/Users/kristofer/agondev/release/lib/libcrt.a(ladd.o)
                              /Users/kristofer/agondev/release/lib/libc.a(fseek.o) (__ladd)
/Users/kristofer/agondev/release/lib/libcrt.a(lcmpu.o)
                              obj/kilo.o (__lcmpu)
/Users/kristofer/agondev/release/lib/libcrt.a(lcmpzero.o)
                              /Users/kristofer/agondev/release/lib/libc.a(nanoprintf.o) (__lcmpzero)
/Users/kristofer/agondev/release/lib/libcrt.a(ldivu.o)
                              /Users/kristofer/agondev/release/lib/libc.a(nanoprintf.o) (__ldivu)
/Users/kristofer/agondev/release/lib/libcrt.a(ldvrmu.o)
                              /Users/kristofer/agondev/release/lib/libcrt.a(ldivu.o) (__ldvrmu)
/Users/kristofer/agondev/release/lib/libcrt.a(lladd.o)
                              obj/kilo.o (__lladd)
/Users/kristofer/agondev/release/lib/libcrt.a(llcmpu.o)
                              obj/kilo.o (__llcmpu)
/Users/kristofer/agondev/release/lib/libcrt.a(lmulu.o)
                              /Users/kristofer/agondev/release/lib/libc.a(nanoprintf.o) (__lmulu)
/Users/kristofer/agondev/release/lib/libcrt.a(lneg.o)
                              /Users/kristofer/agondev/release/lib/libc.a(nanoprintf.o) (__lneg)
/Users/kristofer/agondev/release/lib/libcrt.a(lshl.o)
                              /Users/kristofer/agondev/release/lib/libc.a(nanoprintf.o) (__lshl)
/Users/kristofer/agondev/release/lib/libcrt.a(lshru.o)
                              /Users/kristofer/agondev/release/lib/libc.a(nanoprintf.o) (__lshru)
/Users/kristofer/agondev/release/lib/libcrt.a(lsub.o)
                              obj/kilo.o (__lsub)
/Users/kristofer/agondev/release/lib/libcrt.a(sand.o)
                              /Users/kristofer/agondev/release/lib/libc.a(nanoprintf.o) (__sand)
/Users/kristofer/agondev/release/lib/libcrt.a(setflag.o)
                              obj/kilo.o (__setflag)
/Users/kristofer/agondev/release/lib/libcrt.a(sshru.o)
                              /Users/kristofer/agondev/release/lib/libc.a(nanoprintf.o) (__sshru)
/Users/kristofer/agondev/release/lib/libcrt.a(xor.o)
                              /Users/kristofer/agondev/release/lib/libc.a(nanoprintf.o) (__ixor)
/Users/kristofer/agondev/release/lib/libcrt.a(lshrs.o)
                              /Users/kristofer/agondev/release/lib/libcrt.a(lshru.o) (__lshrs.hijack_lshru)
/Users/kristofer/agondev/release/lib/libfp.a(fpcmp.o)
                              /Users/kristofer/agondev/release/lib/libc.a(nanoprintf.o) (__fcmp)
/Users/kristofer/agondev/release/lib/libc.a(mos_puts.o)
                              /Users/kristofer/agondev/release/lib/libagon.a(vdp_clear_screen.o) (_mos_puts)
/Users/kristofer/agondev/release/lib/libcrt.a(lcmps.o)
                              /Users/kristofer/agondev/release/lib/libfp.a(fpcmp.o) (__lcmps)

There are no discarded input sections

Memory Configuration

Name             Origin             Length             Attributes
USERRAM          0x00040000         0x00070000         rw
*default*        0x00000000         0xffffffff

Linker script and memory map

                0x00040000                        RAM_START = 0x40000
                0x00070000                        RAM_SIZE = 0x70000
                0x00000000                        _has_exit_handler = 0x0
                0x00040000                        . = RAM_START

.init           0x00040000      0x1d4
 *(.init .init.args .init.bss .fini)
 .init          0x00040000       0xbb /Users/kristofer/agondev/release/lib/libcrt.a(crt0.o)
                0x00040040                __mos_header
                0x00040045                __start
                0x000400b8                __start._main
 .fini          0x000400bb       0xbe /Users/kristofer/agondev/release/lib/libcrt.a(crt0.o)
                0x000400bb                ___exithl
                0x000400bd                _exit
                0x0004011c                __Exit
                0x00040120                _abort
 .init.bss      0x00040179       0x11 /Users/kristofer/agondev/release/lib/libcrt.a(crt0.o)
 .init.args     0x0004018a       0x4a /Users/kristofer/agondev/release/lib/libcrt.a(crt0.o)
                0x0004018a                _parse_option
                0x0004018a                _parse_params

.text           0x000401d4     0x4824
 *(.text)
 .text          0x000401d4     0x2492 obj/kilo.o
                0x000401d4                _editorAtExit
                0x000401d5                _set_colours
                0x000401fe                _editorReadKey
                0x000403c9                _getWindowSize
                0x000403e7                _editorUpdateRow
                0x00040565                _editorInsertRow
                0x00040696                _editorFreeRow
                0x000406c9                _editorDelRow
                0x00040796                _editorRowsToString
                0x0004087d                _editorRowInsertChar
                0x00040968                _editorRowAppendString
                0x000409cf                _editorRowDelChar
                0x00040a2f                _editorInsertChar
                0x00040b1d                _editorInsertNewline
                0x00040c5c                _editorDelChar
                0x00040df3                _k_getline
                0x00040ee1                _editorOpen
                0x00040fe9                _fatal
                0x00041004                _editorSave
                0x000410b4                _editorSetStatusMessage
                0x000410f5                _abAppend
                0x00041153                _abFree
                0x00041165                _clrtoeol
                0x00041166                _editorRefreshScreen
                0x000419bd                _editorFind
                0x000420fc                _editorMoveCursor
                0x000423ef                _editorProcessKeypress
                0x00042541                _cleanup
                0x0004255d                _editorFileWasModified
                0x00042562                _updateWindowSize
                0x00042574                _handleSigWinCh
                0x000425c2                _initEditor
                0x00042608                _main
 .text          0x00042666       0xbd /Users/kristofer/agondev/release/lib/libc.a(free.c.o)
                0x00042666                _free
 .text          0x00042723        0xc /Users/kristofer/agondev/release/lib/libc.a(isprint.o)
                0x00042723                _isprint
 .text          0x0004272f       0x9f /Users/kristofer/agondev/release/lib/libc.a(malloc.c.o)
                0x0004272f                _malloc
 .text          0x000427ce       0x1c /Users/kristofer/agondev/release/lib/libc.a(memcpy.o)
                0x000427ce                _memcpy
 .text          0x000427ea       0x2e /Users/kristofer/agondev/release/lib/libc.a(memmove.o)
                0x000427ea                _memmove
 .text          0x00042818       0x17 /Users/kristofer/agondev/release/lib/libc.a(memset.o)
                0x00042818                _memset
 .text          0x0004282f       0x2c /Users/kristofer/agondev/release/lib/libc.a(puts.o)
                0x0004282f                _puts
 .text          0x0004285b       0x76 /Users/kristofer/agondev/release/lib/libc.a(realloc.c.o)
                0x0004285b                _realloc
 .text          0x000428d1       0x28 /Users/kristofer/agondev/release/lib/libc.a(sbrk.o)
                0x000428d1                _sbrk
 .text          0x000428f9       0x15 /Users/kristofer/agondev/release/lib/libc.a(strlen.o)
                0x000428f9                _strlen
 .text          0x0004290e       0x28 /Users/kristofer/agondev/release/lib/libc.a(strstr.o)
                0x0004290e                _strstr
 .text          0x00042936        0x0 /Users/kristofer/agondev/release/lib/libc.a(errno.o)
 .text          0x00042936       0x44 /Users/kristofer/agondev/release/lib/libc.a(fclose.o)
                0x00042936                _fclose
 .text          0x0004297a       0x10 /Users/kristofer/agondev/release/lib/libc.a(fflush.o)
                0x0004297a                _fflush
 .text          0x0004298a       0xdf /Users/kristofer/agondev/release/lib/libc.a(fgetc.o)
                0x0004298a                _fgetc
 .text          0x00042a69       0x52 /Users/kristofer/agondev/release/lib/libc.a(files.o)
                0x00042a69                __stdio_init
 .text          0x00042abb      0x12c /Users/kristofer/agondev/release/lib/libc.a(fopen.o)
                0x00042abb                _fopen
                0x00042b7c                ___fmodeflags
 .text          0x00042be7       0xcc /Users/kristofer/agondev/release/lib/libc.a(fread.o)
                0x00042be7                _fread
 .text          0x00042cb3       0xa9 /Users/kristofer/agondev/release/lib/libc.a(fseek.o)
                0x00042cb3                _fseek
 .text          0x00042d5c       0xd4 /Users/kristofer/agondev/release/lib/libc.a(fwrite.o)
                0x00042d5c                _fwrite
 .text          0x00042e30     0x13b8 /Users/kristofer/agondev/release/lib/libc.a(nanoprintf.o)
                0x00042e30                _npf_vpprintf
                0x00043f71                _npf_pprintf
                0x00043f99                _npf_snprintf
                0x00043fc1                _npf_vsnprintf
                0x0004406e                _vprintf
                0x0004409e                _printf
                0x000440bd                _fprintf
                0x000440e0                _vfprintf
                0x00044115                _vsnprintf
                0x00044178                _snprintf
                0x000441a0                _vsprintf
                0x000441bf                _sprintf
 .text          0x000441e8       0x6d /Users/kristofer/agondev/release/lib/libc.a(time.o)
                0x000441e8                _time
 .text          0x00044255       0x3d /Users/kristofer/agondev/release/lib/libc.a(ungetc.o)
                0x00044255                _ungetc
 .text          0x00044292       0x15 /Users/kristofer/agondev/release/lib/libc.a(mos_fclose.o)
                0x00044292                _mos_fclose
 .text          0x000442a7       0x15 /Users/kristofer/agondev/release/lib/libc.a(mos_fgetc.o)
                0x000442a7                _mos_fgetc
 .text          0x000442bc       0x1f /Users/kristofer/agondev/release/lib/libc.a(mos_flseek.o)
                0x000442bc                _mos_flseek
 .text          0x000442db       0x18 /Users/kristofer/agondev/release/lib/libc.a(mos_fopen.o)
                0x000442db                _mos_fopen
 .text          0x000442f3       0x1c /Users/kristofer/agondev/release/lib/libc.a(mos_fread.o)
                0x000442f3                _mos_fread
 .text          0x0004430f       0x1c /Users/kristofer/agondev/release/lib/libc.a(mos_fwrite.o)
                0x0004430f                _mos_fwrite
 .text          0x0004432b       0x15 /Users/kristofer/agondev/release/lib/libc.a(mos_getfil.o)
                0x0004432b                _mos_getfil
 .text          0x00044340       0x15 /Users/kristofer/agondev/release/lib/libc.a(mos_getrtc.o)
                0x00044340                _mos_getrtc
 .text          0x00044355        0xc /Users/kristofer/agondev/release/lib/libc.a(mos_getsysvar_rtc.o)
                0x00044355                _getsysvar_rtc
 .text          0x00044361       0x2f /Users/kristofer/agondev/release/lib/libc.a(putchar.o)
                0x00044361                _putchar
 .text          0x00044390       0x1d /Users/kristofer/agondev/release/lib/libc.a(strchr.o)
                0x00044390                _strchr
 .text          0x000443ad       0xb7 /Users/kristofer/agondev/release/lib/libc.a(fputc.o)
                0x000443ad                _fputc
                0x0004443d                _fput_char
 .text          0x00044464      0x171 /Users/kristofer/agondev/release/lib/libc.a(mktime.o)
                0x00044464                _mktime
 .text          0x000445d5       0x3a /Users/kristofer/agondev/release/lib/libc.a(isleap.c.o)
                0x000445d5                ___isleap
 .text          0x0004460f       0x18 /Users/kristofer/agondev/release/lib/libc.a(mos_fputc.o)
                0x0004460f                _mos_fputc
 .text          0x00044627        0x7 /Users/kristofer/agondev/release/lib/libc.a(outchar.o)
                0x00044627                _outchar
 .text          0x0004462e       0x17 /Users/kristofer/agondev/release/lib/libagon.a(vdp_clear_screen.o)
                0x0004462e                _vdp_clear_screen
 .text          0x00044645       0x25 /Users/kristofer/agondev/release/lib/libagon.a(vdp_cursor_enable.o)
                0x00044645                _vdp_cursor_enable
 .text          0x0004466a       0x2a /Users/kristofer/agondev/release/lib/libagon.a(vdp_cursor_tab.o)
                0x0004466a                _vdp_cursor_tab
 .text          0x00044694       0x23 /Users/kristofer/agondev/release/lib/libagon.a(vdp_set_text_colour.o)
                0x00044694                _vdp_set_text_colour
 .text          0x000446b7       0x1c /Users/kristofer/agondev/release/lib/libcrt.a(and.o)
                0x000446b7                __land
                0x000446bc                __iand
                0x000446bd                __iand.hijack_land
 .text          0x000446d3        0xa /Users/kristofer/agondev/release/lib/libcrt.a(bshru.o)
                0x000446d3                __bshru
 .text          0x000446dd       0x2c /Users/kristofer/agondev/release/lib/libcrt.a(crt0.o)
                0x000446dd                _atexit
                0x000446dd                _on_exit
 .text          0x00044709        0xe /Users/kristofer/agondev/release/lib/libcrt.a(frameset.o)
                0x00044709                __frameset
 .text          0x00044717        0xb /Users/kristofer/agondev/release/lib/libcrt.a(frameset0.o)
                0x00044717                __frameset0
 .text          0x00044722        0x7 /Users/kristofer/agondev/release/lib/libcrt.a(idivs.o)
                0x00044722                __idivs
 .text          0x00044729        0x8 /Users/kristofer/agondev/release/lib/libcrt.a(idivu.o)
                0x00044729                __idivu
 .text          0x00044731       0x2e /Users/kristofer/agondev/release/lib/libcrt.a(idvrms.o)
                0x00044731                __idvrms
 .text          0x0004475f       0x18 /Users/kristofer/agondev/release/lib/libcrt.a(idvrmu.o)
                0x0004475f                __idvrmu
                0x00044763                __idvrmu.hijack_a_iters_ude_dividend
 .text          0x00044777       0x30 /Users/kristofer/agondev/release/lib/libcrt.a(imulu.o)
                0x00044777                __imuls
                0x00044777                __imulu
 .text          0x000447a7        0x7 /Users/kristofer/agondev/release/lib/libcrt.a(inchar.o)
                0x000447a7                _inchar
 .text          0x000447ae        0x1 /Users/kristofer/agondev/release/lib/libcrt.a(indcallhl.o)
                0x000447ae                __indcallhl
 .text          0x000447af        0x9 /Users/kristofer/agondev/release/lib/libcrt.a(ineg_sneg.o)
                0x000447af                __ineg
                0x000447af                __sneg
 .text          0x000447b8        0xa /Users/kristofer/agondev/release/lib/libcrt.a(inot.o)
                0x000447b8                __inot
 .text          0x000447c2        0x8 /Users/kristofer/agondev/release/lib/libcrt.a(irems.o)
                0x000447c2                __irems
 .text          0x000447ca       0x26 /Users/kristofer/agondev/release/lib/libcrt.a(ishl.o)
                0x000447ca                __sshl
                0x000447ca                __ishl
 .text          0x000447f0       0x41 /Users/kristofer/agondev/release/lib/libcrt.a(ishrs.o)
                0x000447f0                __ishru
                0x000447f5                __ishrs
 .text          0x00044831        0x6 /Users/kristofer/agondev/release/lib/libcrt.a(ladd.o)
                0x00044831                __ladd
 .text          0x00044837        0x8 /Users/kristofer/agondev/release/lib/libcrt.a(lcmpu.o)
                0x00044837                __lcmpu
 .text          0x0004483f        0xb /Users/kristofer/agondev/release/lib/libcrt.a(lcmpzero.o)
                0x0004483f                __lcmpzero
 .text          0x0004484a        0xa /Users/kristofer/agondev/release/lib/libcrt.a(ldivu.o)
                0x0004484a                __ldivu
 .text          0x00044854       0x28 /Users/kristofer/agondev/release/lib/libcrt.a(ldvrmu.o)
                0x00044854                __ldvrmu
 .text          0x0004487c       0x24 /Users/kristofer/agondev/release/lib/libcrt.a(lladd.o)
                0x0004487c                __lladd
 .text          0x000448a0       0x2a /Users/kristofer/agondev/release/lib/libcrt.a(llcmpu.o)
                0x000448a0                __llcmpu
 .text          0x000448ca       0x5c /Users/kristofer/agondev/release/lib/libcrt.a(lmulu.o)
                0x000448ca                __lmuls
                0x000448ca                __lmulu
 .text          0x00044926        0xd /Users/kristofer/agondev/release/lib/libcrt.a(lneg.o)
                0x00044926                __lneg
 .text          0x00044933        0xd /Users/kristofer/agondev/release/lib/libcrt.a(lshl.o)
                0x00044933                __lshl
 .text          0x00044940       0x10 /Users/kristofer/agondev/release/lib/libcrt.a(lshru.o)
                0x00044940                __lshru
 .text          0x00044950        0xa /Users/kristofer/agondev/release/lib/libcrt.a(lsub.o)
                0x00044950                __lsub
 .text          0x0004495a        0x9 /Users/kristofer/agondev/release/lib/libcrt.a(sand.o)
                0x0004495a                __sand
 .text          0x00044963        0xf /Users/kristofer/agondev/release/lib/libcrt.a(setflag.o)
                0x00044963                __setflag
 .text          0x00044972        0xd /Users/kristofer/agondev/release/lib/libcrt.a(sshru.o)
                0x00044972                __sshru
 .text          0x0004497f       0x1b /Users/kristofer/agondev/release/lib/libcrt.a(xor.o)
                0x0004497f                __lxor
                0x00044983                __ixor
 .text          0x0004499a       0x1b /Users/kristofer/agondev/release/lib/libcrt.a(lshrs.o)
                0x0004499a                __lshrs
                0x000449a6                __lshrs.hijack_lshru
 .text          0x000449b5       0x1d /Users/kristofer/agondev/release/lib/libfp.a(fpcmp.o)
                0x000449b5                __fcmp
 .text          0x000449d2       0x19 /Users/kristofer/agondev/release/lib/libc.a(mos_puts.o)
                0x000449d2                _mos_puts
 .text          0x000449eb        0xd /Users/kristofer/agondev/release/lib/libcrt.a(lcmps.o)
                0x000449eb                __lcmps

.init_array     0x000449f8        0x0
 *(.init_array)
 .init_array    0x000449f8        0x0 /Users/kristofer/agondev/release/lib/libcrt.a(crt0.o)

.ctors          0x000449f8        0x0
 *(.ctors)
 .ctors         0x000449f8        0x0 /Users/kristofer/agondev/release/lib/libcrt.a(crt0.o)

.dtors          0x000449f8        0x0
 *(.dtors)
 .dtors         0x000449f8        0x0 /Users/kristofer/agondev/release/lib/libcrt.a(crt0.o)

.comment        0x00000000      0xa0b
 .comment       0x00000000       0x71 obj/kilo.o
 .comment       0x00000071       0x6a /Users/kristofer/agondev/release/lib/libc.a(free.c.o)
 .comment       0x000000db       0x6a /Users/kristofer/agondev/release/lib/libc.a(malloc.c.o)
 .comment       0x00000145       0x6a /Users/kristofer/agondev/release/lib/libc.a(realloc.c.o)
 .comment       0x000001af       0x71 /Users/kristofer/agondev/release/lib/libc.a(errno.o)
 .comment       0x00000220       0x71 /Users/kristofer/agondev/release/lib/libc.a(fclose.o)
 .comment       0x00000291       0x71 /Users/kristofer/agondev/release/lib/libc.a(fflush.o)
 .comment       0x00000302       0x71 /Users/kristofer/agondev/release/lib/libc.a(fgetc.o)
 .comment       0x00000373       0x71 /Users/kristofer/agondev/release/lib/libc.a(files.o)
 .comment       0x000003e4       0x71 /Users/kristofer/agondev/release/lib/libc.a(fopen.o)
 .comment       0x00000455       0x71 /Users/kristofer/agondev/release/lib/libc.a(fread.o)
 .comment       0x000004c6       0x71 /Users/kristofer/agondev/release/lib/libc.a(fseek.o)
 .comment       0x00000537       0x71 /Users/kristofer/agondev/release/lib/libc.a(fwrite.o)
 .comment       0x000005a8       0x71 /Users/kristofer/agondev/release/lib/libc.a(nanoprintf.o)
 .comment       0x00000619       0x71 /Users/kristofer/agondev/release/lib/libc.a(time.o)
 .comment       0x0000068a       0x71 /Users/kristofer/agondev/release/lib/libc.a(ungetc.o)
 .comment       0x000006fb       0x71 /Users/kristofer/agondev/release/lib/libc.a(fputc.o)
 .comment       0x0000076c       0x71 /Users/kristofer/agondev/release/lib/libc.a(mktime.o)
 .comment       0x000007dd       0x6a /Users/kristofer/agondev/release/lib/libc.a(isleap.c.o)
 .comment       0x00000847       0x71 /Users/kristofer/agondev/release/lib/libagon.a(vdp_clear_screen.o)
 .comment       0x000008b8       0x71 /Users/kristofer/agondev/release/lib/libagon.a(vdp_cursor_enable.o)
 .comment       0x00000929       0x71 /Users/kristofer/agondev/release/lib/libagon.a(vdp_cursor_tab.o)
 .comment       0x0000099a       0x71 /Users/kristofer/agondev/release/lib/libagon.a(vdp_set_text_colour.o)

.fini_array     0x000449f8        0x0
 *(.fini_array)
 .fini_array    0x000449f8        0x0 /Users/kristofer/agondev/release/lib/libcrt.a(crt0.o)

.rodata         0x000449f8      0x2c1
 *(.rodata)
 .rodata        0x000449f8      0x1d9 obj/kilo.o
 .rodata        0x00044bd1        0x9 /Users/kristofer/agondev/release/lib/libc.a(puts.o)
                0x00044bd1                ___null_literal_str
                0x00044bd8                ___end_of_line_str
 .rodata        0x00044bda        0x4 /Users/kristofer/agondev/release/lib/libc.a(fopen.o)
 .rodata        0x00044bde       0xab /Users/kristofer/agondev/release/lib/libc.a(nanoprintf.o)
 .rodata        0x00044c89       0x24 /Users/kristofer/agondev/release/lib/libc.a(mktime.o)
 .rodata        0x00044cad        0xc /Users/kristofer/agondev/release/lib/libcrt.a(crt0.o)

.data           0x00044cb9       0x54
 *(.data)
 .data          0x00044cb9        0x3 obj/kilo.o
 .data          0x00044cbc        0x0 /Users/kristofer/agondev/release/lib/libc.a(free.c.o)
 .data          0x00044cbc        0x0 /Users/kristofer/agondev/release/lib/libc.a(isprint.o)
 .data          0x00044cbc        0x0 /Users/kristofer/agondev/release/lib/libc.a(malloc.c.o)
 .data          0x00044cbc        0x0 /Users/kristofer/agondev/release/lib/libc.a(memcpy.o)
 .data          0x00044cbc        0x0 /Users/kristofer/agondev/release/lib/libc.a(memmove.o)
 .data          0x00044cbc        0x0 /Users/kristofer/agondev/release/lib/libc.a(memset.o)
 .data          0x00044cbc        0x0 /Users/kristofer/agondev/release/lib/libc.a(puts.o)
 .data          0x00044cbc        0x0 /Users/kristofer/agondev/release/lib/libc.a(realloc.c.o)
 .data          0x00044cbc        0x3 /Users/kristofer/agondev/release/lib/libc.a(sbrk.o)
                0x00044cbc                __sbrkbase
 .data          0x00044cbf        0x0 /Users/kristofer/agondev/release/lib/libc.a(strlen.o)
 .data          0x00044cbf        0x0 /Users/kristofer/agondev/release/lib/libc.a(strstr.o)
 .data          0x00044cbf        0x0 /Users/kristofer/agondev/release/lib/libc.a(errno.o)
 .data          0x00044cbf        0x0 /Users/kristofer/agondev/release/lib/libc.a(fclose.o)
 .data          0x00044cbf        0x0 /Users/kristofer/agondev/release/lib/libc.a(fflush.o)
 .data          0x00044cbf        0x0 /Users/kristofer/agondev/release/lib/libc.a(fgetc.o)
 .data          0x00044cbf        0xf /Users/kristofer/agondev/release/lib/libc.a(files.o)
                0x00044cbf                _stdin
                0x00044cc4                _stdout
                0x00044cc9                _stderr
 .data          0x00044cce        0x0 /Users/kristofer/agondev/release/lib/libc.a(fopen.o)
 .data          0x00044cce        0x0 /Users/kristofer/agondev/release/lib/libc.a(fread.o)
 .data          0x00044cce        0x0 /Users/kristofer/agondev/release/lib/libc.a(fseek.o)
 .data          0x00044cce        0x0 /Users/kristofer/agondev/release/lib/libc.a(fwrite.o)
 .data          0x00044cce        0x0 /Users/kristofer/agondev/release/lib/libc.a(nanoprintf.o)
 .data          0x00044cce        0x0 /Users/kristofer/agondev/release/lib/libc.a(time.o)
 .data          0x00044cce        0x0 /Users/kristofer/agondev/release/lib/libc.a(ungetc.o)
 .data          0x00044cce        0x0 /Users/kristofer/agondev/release/lib/libc.a(mos_fclose.o)
 .data          0x00044cce        0x0 /Users/kristofer/agondev/release/lib/libc.a(mos_fgetc.o)
 .data          0x00044cce        0x0 /Users/kristofer/agondev/release/lib/libc.a(mos_flseek.o)
 .data          0x00044cce        0x0 /Users/kristofer/agondev/release/lib/libc.a(mos_fopen.o)
 .data          0x00044cce        0x0 /Users/kristofer/agondev/release/lib/libc.a(mos_fread.o)
 .data          0x00044cce        0x0 /Users/kristofer/agondev/release/lib/libc.a(mos_fwrite.o)
 .data          0x00044cce        0x0 /Users/kristofer/agondev/release/lib/libc.a(mos_getfil.o)
 .data          0x00044cce        0x0 /Users/kristofer/agondev/release/lib/libc.a(mos_getrtc.o)
 .data          0x00044cce        0x0 /Users/kristofer/agondev/release/lib/libc.a(mos_getsysvar_rtc.o)
 .data          0x00044cce        0x0 /Users/kristofer/agondev/release/lib/libc.a(putchar.o)
 .data          0x00044cce        0x0 /Users/kristofer/agondev/release/lib/libc.a(strchr.o)
 .data          0x00044cce        0x0 /Users/kristofer/agondev/release/lib/libc.a(fputc.o)
 .data          0x00044cce        0x0 /Users/kristofer/agondev/release/lib/libc.a(mktime.o)
 .data          0x00044cce        0x0 /Users/kristofer/agondev/release/lib/libc.a(isleap.c.o)
 .data          0x00044cce        0x0 /Users/kristofer/agondev/release/lib/libc.a(mos_fputc.o)
 .data          0x00044cce        0x0 /Users/kristofer/agondev/release/lib/libc.a(outchar.o)
 .data          0x00044cce        0x1 /Users/kristofer/agondev/release/lib/libagon.a(vdp_clear_screen.o)
 .data          0x00044ccf        0x3 /Users/kristofer/agondev/release/lib/libagon.a(vdp_cursor_enable.o)
 .data          0x00044cd2        0x3 /Users/kristofer/agondev/release/lib/libagon.a(vdp_cursor_tab.o)
 .data          0x00044cd5        0x2 /Users/kristofer/agondev/release/lib/libagon.a(vdp_set_text_colour.o)
 .data          0x00044cd7        0x0 /Users/kristofer/agondev/release/lib/libcrt.a(and.o)
 .data          0x00044cd7        0x0 /Users/kristofer/agondev/release/lib/libcrt.a(bshru.o)
 .data          0x00044cd7       0x36 /Users/kristofer/agondev/release/lib/libcrt.a(crt0.o)
                0x00044d0a                _exit.sp
 .data          0x00044d0d        0x0 /Users/kristofer/agondev/release/lib/libcrt.a(frameset.o)
 .data          0x00044d0d        0x0 /Users/kristofer/agondev/release/lib/libcrt.a(frameset0.o)
 .data          0x00044d0d        0x0 /Users/kristofer/agondev/release/lib/libcrt.a(idivs.o)
 .data          0x00044d0d        0x0 /Users/kristofer/agondev/release/lib/libcrt.a(idivu.o)
 .data          0x00044d0d        0x0 /Users/kristofer/agondev/release/lib/libcrt.a(idvrms.o)
 .data          0x00044d0d        0x0 /Users/kristofer/agondev/release/lib/libcrt.a(idvrmu.o)
 .data          0x00044d0d        0x0 /Users/kristofer/agondev/release/lib/libcrt.a(imulu.o)
 .data          0x00044d0d        0x0 /Users/kristofer/agondev/release/lib/libcrt.a(inchar.o)
 .data          0x00044d0d        0x0 /Users/kristofer/agondev/release/lib/libcrt.a(indcallhl.o)
 .data          0x00044d0d        0x0 /Users/kristofer/agondev/release/lib/libcrt.a(ineg_sneg.o)
 .data          0x00044d0d        0x0 /Users/kristofer/agondev/release/lib/libcrt.a(inot.o)
 .data          0x00044d0d        0x0 /Users/kristofer/agondev/release/lib/libcrt.a(irems.o)
 .data          0x00044d0d        0x0 /Users/kristofer/agondev/release/lib/libcrt.a(ishl.o)
 .data          0x00044d0d        0x0 /Users/kristofer/agondev/release/lib/libcrt.a(ishrs.o)
 .data          0x00044d0d        0x0 /Users/kristofer/agondev/release/lib/libcrt.a(ladd.o)
 .data          0x00044d0d        0x0 /Users/kristofer/agondev/release/lib/libcrt.a(lcmpu.o)
 .data          0x00044d0d        0x0 /Users/kristofer/agondev/release/lib/libcrt.a(lcmpzero.o)
 .data          0x00044d0d        0x0 /Users/kristofer/agondev/release/lib/libcrt.a(ldivu.o)
 .data          0x00044d0d        0x0 /Users/kristofer/agondev/release/lib/libcrt.a(ldvrmu.o)
 .data          0x00044d0d        0x0 /Users/kristofer/agondev/release/lib/libcrt.a(lladd.o)
 .data          0x00044d0d        0x0 /Users/kristofer/agondev/release/lib/libcrt.a(llcmpu.o)
 .data          0x00044d0d        0x0 /Users/kristofer/agondev/release/lib/libcrt.a(lmulu.o)
 .data          0x00044d0d        0x0 /Users/kristofer/agondev/release/lib/libcrt.a(lneg.o)
 .data          0x00044d0d        0x0 /Users/kristofer/agondev/release/lib/libcrt.a(lshl.o)
 .data          0x00044d0d        0x0 /Users/kristofer/agondev/release/lib/libcrt.a(lshru.o)
 .data          0x00044d0d        0x0 /Users/kristofer/agondev/release/lib/libcrt.a(lsub.o)
 .data          0x00044d0d        0x0 /Users/kristofer/agondev/release/lib/libcrt.a(sand.o)
 .data          0x00044d0d        0x0 /Users/kristofer/agondev/release/lib/libcrt.a(setflag.o)
 .data          0x00044d0d        0x0 /Users/kristofer/agondev/release/lib/libcrt.a(sshru.o)
 .data          0x00044d0d        0x0 /Users/kristofer/agondev/release/lib/libcrt.a(xor.o)
 .data          0x00044d0d        0x0 /Users/kristofer/agondev/release/lib/libcrt.a(lshrs.o)
 .data          0x00044d0d        0x0 /Users/kristofer/agondev/release/lib/libfp.a(fpcmp.o)
 .data          0x00044d0d        0x0 /Users/kristofer/agondev/release/lib/libc.a(mos_puts.o)
 .data          0x00044d0d        0x0 /Users/kristofer/agondev/release/lib/libcrt.a(lcmps.o)

.bss            0x00044d0d       0xca
                0x00044d0d                        bss_start = .
 *(.bss .bss*)
 .bss           0x00044d0d       0x78 obj/kilo.o
 .bss           0x00044d85        0x0 /Users/kristofer/agondev/release/lib/libc.a(free.c.o)
 .bss           0x00044d85        0x0 /Users/kristofer/agondev/release/lib/libc.a(isprint.o)
 .bss           0x00044d85        0x6 /Users/kristofer/agondev/release/lib/libc.a(malloc.c.o)
                0x00044d85                __alloc_base
 .bss           0x00044d8b        0x0 /Users/kristofer/agondev/release/lib/libc.a(memcpy.o)
 .bss           0x00044d8b        0x0 /Users/kristofer/agondev/release/lib/libc.a(memmove.o)
 .bss           0x00044d8b        0x0 /Users/kristofer/agondev/release/lib/libc.a(memset.o)
 .bss           0x00044d8b        0x0 /Users/kristofer/agondev/release/lib/libc.a(puts.o)
 .bss           0x00044d8b        0x0 /Users/kristofer/agondev/release/lib/libc.a(realloc.c.o)
 .bss           0x00044d8b        0x0 /Users/kristofer/agondev/release/lib/libc.a(sbrk.o)
 .bss           0x00044d8b        0x0 /Users/kristofer/agondev/release/lib/libc.a(strlen.o)
 .bss           0x00044d8b        0x0 /Users/kristofer/agondev/release/lib/libc.a(strstr.o)
 .bss           0x00044d8b        0x3 /Users/kristofer/agondev/release/lib/libc.a(errno.o)
                0x00044d8b                _errno
 .bss           0x00044d8e        0x0 /Users/kristofer/agondev/release/lib/libc.a(fclose.o)
 .bss           0x00044d8e        0x0 /Users/kristofer/agondev/release/lib/libc.a(fflush.o)
 .bss           0x00044d8e        0x0 /Users/kristofer/agondev/release/lib/libc.a(fgetc.o)
 .bss           0x00044d8e       0x28 /Users/kristofer/agondev/release/lib/libc.a(files.o)
                0x00044d8e                __file_streams
 .bss           0x00044db6        0x0 /Users/kristofer/agondev/release/lib/libc.a(fopen.o)
 .bss           0x00044db6        0x0 /Users/kristofer/agondev/release/lib/libc.a(fread.o)
 .bss           0x00044db6        0x0 /Users/kristofer/agondev/release/lib/libc.a(fseek.o)
 .bss           0x00044db6        0x0 /Users/kristofer/agondev/release/lib/libc.a(fwrite.o)
 .bss           0x00044db6        0x0 /Users/kristofer/agondev/release/lib/libc.a(nanoprintf.o)
 .bss           0x00044db6       0x21 /Users/kristofer/agondev/release/lib/libc.a(time.o)
 .bss           0x00044dd7        0x0 /Users/kristofer/agondev/release/lib/libc.a(ungetc.o)
 .bss           0x00044dd7        0x0 /Users/kristofer/agondev/release/lib/libc.a(mos_fclose.o)
 .bss           0x00044dd7        0x0 /Users/kristofer/agondev/release/lib/libc.a(mos_fgetc.o)
 .bss           0x00044dd7        0x0 /Users/kristofer/agondev/release/lib/libc.a(mos_flseek.o)
 .bss           0x00044dd7        0x0 /Users/kristofer/agondev/release/lib/libc.a(mos_fopen.o)
 .bss           0x00044dd7        0x0 /Users/kristofer/agondev/release/lib/libc.a(mos_fread.o)
 .bss           0x00044dd7        0x0 /Users/kristofer/agondev/release/lib/libc.a(mos_fwrite.o)
 .bss           0x00044dd7        0x0 /Users/kristofer/agondev/release/lib/libc.a(mos_getfil.o)
 .bss           0x00044dd7        0x0 /Users/kristofer/agondev/release/lib/libc.a(mos_getrtc.o)
 .bss           0x00044dd7        0x0 /Users/kristofer/agondev/release/lib/libc.a(mos_getsysvar_rtc.o)
 .bss           0x00044dd7        0x0 /Users/kristofer/agondev/release/lib/libc.a(putchar.o)
 .bss           0x00044dd7        0x0 /Users/kristofer/agondev/release/lib/libc.a(strchr.o)
 .bss           0x00044dd7        0x0 /Users/kristofer/agondev/release/lib/libc.a(fputc.o)
 .bss           0x00044dd7        0x0 /Users/kristofer/agondev/release/lib/libc.a(mktime.o)
 .bss           0x00044dd7        0x0 /Users/kristofer/agondev/release/lib/libc.a(isleap.c.o)
 .bss           0x00044dd7        0x0 /Users/kristofer/agondev/release/lib/libc.a(mos_fputc.o)
 .bss           0x00044dd7        0x0 /Users/kristofer/agondev/release/lib/libc.a(outchar.o)
 .bss           0x00044dd7        0x0 /Users/kristofer/agondev/release/lib/libagon.a(vdp_clear_screen.o)
 .bss           0x00044dd7        0x0 /Users/kristofer/agondev/release/lib/libagon.a(vdp_cursor_enable.o)
 .bss           0x00044dd7        0x0 /Users/kristofer/agondev/release/lib/libagon.a(vdp_cursor_tab.o)
 .bss           0x00044dd7        0x0 /Users/kristofer/agondev/release/lib/libagon.a(vdp_set_text_colour.o)
 .bss           0x00044dd7        0x0 /Users/kristofer/agondev/release/lib/libcrt.a(and.o)
 .bss           0x00044dd7        0x0 /Users/kristofer/agondev/release/lib/libcrt.a(bshru.o)
 .bss           0x00044dd7        0x0 /Users/kristofer/agondev/release/lib/libcrt.a(crt0.o)
 .bss           0x00044dd7        0x0 /Users/kristofer/agondev/release/lib/libcrt.a(frameset.o)
 .bss           0x00044dd7        0x0 /Users/kristofer/agondev/release/lib/libcrt.a(frameset0.o)
 .bss           0x00044dd7        0x0 /Users/kristofer/agondev/release/lib/libcrt.a(idivs.o)
 .bss           0x00044dd7        0x0 /Users/kristofer/agondev/release/lib/libcrt.a(idivu.o)
 .bss           0x00044dd7        0x0 /Users/kristofer/agondev/release/lib/libcrt.a(idvrms.o)
 .bss           0x00044dd7        0x0 /Users/kristofer/agondev/release/lib/libcrt.a(idvrmu.o)
 .bss           0x00044dd7        0x0 /Users/kristofer/agondev/release/lib/libcrt.a(imulu.o)
 .bss           0x00044dd7        0x0 /Users/kristofer/agondev/release/lib/libcrt.a(inchar.o)
 .bss           0x00044dd7        0x0 /Users/kristofer/agondev/release/lib/libcrt.a(indcallhl.o)
 .bss           0x00044dd7        0x0 /Users/kristofer/agondev/release/lib/libcrt.a(ineg_sneg.o)
 .bss           0x00044dd7        0x0 /Users/kristofer/agondev/release/lib/libcrt.a(inot.o)
 .bss           0x00044dd7        0x0 /Users/kristofer/agondev/release/lib/libcrt.a(irems.o)
 .bss           0x00044dd7        0x0 /Users/kristofer/agondev/release/lib/libcrt.a(ishl.o)
 .bss           0x00044dd7        0x0 /Users/kristofer/agondev/release/lib/libcrt.a(ishrs.o)
 .bss           0x00044dd7        0x0 /Users/kristofer/agondev/release/lib/libcrt.a(ladd.o)
 .bss           0x00044dd7        0x0 /Users/kristofer/agondev/release/lib/libcrt.a(lcmpu.o)
 .bss           0x00044dd7        0x0 /Users/kristofer/agondev/release/lib/libcrt.a(lcmpzero.o)
 .bss           0x00044dd7        0x0 /Users/kristofer/agondev/release/lib/libcrt.a(ldivu.o)
 .bss           0x00044dd7        0x0 /Users/kristofer/agondev/release/lib/libcrt.a(ldvrmu.o)
 .bss           0x00044dd7        0x0 /Users/kristofer/agondev/release/lib/libcrt.a(lladd.o)
 .bss           0x00044dd7        0x0 /Users/kristofer/agondev/release/lib/libcrt.a(llcmpu.o)
 .bss           0x00044dd7        0x0 /Users/kristofer/agondev/release/lib/libcrt.a(lmulu.o)
 .bss           0x00044dd7        0x0 /Users/kristofer/agondev/release/lib/libcrt.a(lneg.o)
 .bss           0x00044dd7        0x0 /Users/kristofer/agondev/release/lib/libcrt.a(lshl.o)
 .bss           0x00044dd7        0x0 /Users/kristofer/agondev/release/lib/libcrt.a(lshru.o)
 .bss           0x00044dd7        0x0 /Users/kristofer/agondev/release/lib/libcrt.a(lsub.o)
 .bss           0x00044dd7        0x0 /Users/kristofer/agondev/release/lib/libcrt.a(sand.o)
 .bss           0x00044dd7        0x0 /Users/kristofer/agondev/release/lib/libcrt.a(setflag.o)
 .bss           0x00044dd7        0x0 /Users/kristofer/agondev/release/lib/libcrt.a(sshru.o)
 .bss           0x00044dd7        0x0 /Users/kristofer/agondev/release/lib/libcrt.a(xor.o)
 .bss           0x00044dd7        0x0 /Users/kristofer/agondev/release/lib/libcrt.a(lshrs.o)
 .bss           0x00044dd7        0x0 /Users/kristofer/agondev/release/lib/libfp.a(fpcmp.o)
 .bss           0x00044dd7        0x0 /Users/kristofer/agondev/release/lib/libc.a(mos_puts.o)
 .bss           0x00044dd7        0x0 /Users/kristofer/agondev/release/lib/libcrt.a(lcmps.o)
                0x00044dd7                        bss_end = .
                0x000b0000                        __stack = (RAM_START + RAM_SIZE)
                0x00044d0d                        ___low_bss = bss_start
                0x000000ca                        ___len_bss = SIZEOF (.bss)
                0x00044dd7                        ___heapbot = bss_end
                0x000b0000                        ___heaptop = (RAM_START + RAM_SIZE)
                0x00000001                        ___run_clearbss = (___len_bss > 0x0)
                0x00000000                        ___init_array_count = (SIZEOF (.init_array) / 0x3)
                0x00000000                        ___ctors_count = (SIZEOF (.ctors) / 0x3)
                0x00000000                        ___dtors_count = (SIZEOF (.dtors) / 0x3)
                0x00000000                        ___fini_array_count = (SIZEOF (.fini_array) / 0x3)
                0x00000000                        ___init_count = (___init_array_count + ___ctors_count)
                0x00000000                        ___fini_count = (___dtors_count + ___fini_array_count)
                0x00000000                        ___run_init = (___init_count > 0x0)
                0x00000000                        ___run_fini = (___fini_count > 0x0)
                0x00000100                        ___init_count_a = ((((___init_count - 0x1) >> 0x10) & 0xff) + 0x1)
                0x00000100                        ___init_count_b = (((___init_count - 0x1) & 0xff) + 0x1)
                0x00000100                        ___init_count_c = ((((___init_count - 0x1) >> 0x8) & 0xff) + 0x1)
                0x00000100                        ___fini_count_a = ((((___fini_count - 0x1) >> 0x10) & 0xff) + 0x1)
                0x00000100                        ___fini_count_b = (((___fini_count - 0x1) & 0xff) + 0x1)
                0x00000100                        ___fini_count_c = ((((___fini_count - 0x1) >> 0x8) & 0xff) + 0x1)
                0x000449f8                        ___init_array_functions = (SIZEOF (.init_array) + ADDR (.init_array))
                0x000449f8                        ___init_ctors_functions = (SIZEOF (.ctors) + ADDR (.ctors))
                0x000449f8                        ___fini_dtors_functions = (SIZEOF (.dtors) + ADDR (.dtors))
                0x000449f8                        ___fini_array_functions = (SIZEOF (.fini_array) + ADDR (.fini_array))
LOAD obj/kilo.o
START GROUP
LOAD /Users/kristofer/agondev/release/lib/libc.a
LOAD /Users/kristofer/agondev/release/lib/libagon.a
LOAD /Users/kristofer/agondev/release/lib/libcrt.a
LOAD /Users/kristofer/agondev/release/lib/libfp.a
END GROUP
OUTPUT(bin/kilo.c.bin binary)
