Archive member included to satisfy reference by file (symbol)

/Users/kristofer/agondev/release/lib/libc.a(puts.o)
                              obj/main.o (_puts)
/Users/kristofer/agondev/release/lib/libc.a(nanoprintf.o)
                              obj/main.o (_printf)
/Users/kristofer/agondev/release/lib/libc.a(putchar.o)
                              /Users/kristofer/agondev/release/lib/libc.a(puts.o) (_putchar)
/Users/kristofer/agondev/release/lib/libc.a(files.o)
                              /Users/kristofer/agondev/release/lib/libc.a(putchar.o) (_stdout)
/Users/kristofer/agondev/release/lib/libc.a(fputc.o)
                              /Users/kristofer/agondev/release/lib/libc.a(nanoprintf.o) (_fputc)
/Users/kristofer/agondev/release/lib/libc.a(mos_fputc.o)
                              /Users/kristofer/agondev/release/lib/libc.a(fputc.o) (_mos_fputc)
/Users/kristofer/agondev/release/lib/libc.a(outchar.o)
                              /Users/kristofer/agondev/release/lib/libc.a(putchar.o) (_outchar)
/Users/kristofer/agondev/release/lib/libagon.a(vdp_key.o)
                              obj/main.o (_vdp_key_init)
/Users/kristofer/agondev/release/lib/libagon.a(intagon.o)
                              /Users/kristofer/agondev/release/lib/libagon.a(vdp_key.o) (__agdev_default_mi_handler)
/Users/kristofer/agondev/release/lib/libcrt.a(and.o)
                              /Users/kristofer/agondev/release/lib/libc.a(nanoprintf.o) (__land)
/Users/kristofer/agondev/release/lib/libcrt.a(bshru.o)
                              /Users/kristofer/agondev/release/lib/libc.a(nanoprintf.o) (__bshru)
/Users/kristofer/agondev/release/lib/libcrt.a(crt0.o)
                              (__start)
/Users/kristofer/agondev/release/lib/libcrt.a(frameset.o)
                              obj/main.o (__frameset)
/Users/kristofer/agondev/release/lib/libcrt.a(frameset0.o)
                              obj/main.o (__frameset0)
/Users/kristofer/agondev/release/lib/libcrt.a(idivu.o)
                              /Users/kristofer/agondev/release/lib/libc.a(nanoprintf.o) (__idivu)
/Users/kristofer/agondev/release/lib/libcrt.a(idvrmu.o)
                              /Users/kristofer/agondev/release/lib/libcrt.a(idivu.o) (__idvrmu)
/Users/kristofer/agondev/release/lib/libcrt.a(imulu.o)
                              /Users/kristofer/agondev/release/lib/libc.a(nanoprintf.o) (__imulu)
/Users/kristofer/agondev/release/lib/libcrt.a(indcallhl.o)
                              /Users/kristofer/agondev/release/lib/libc.a(nanoprintf.o) (__indcallhl)
/Users/kristofer/agondev/release/lib/libcrt.a(ishl.o)
                              /Users/kristofer/agondev/release/lib/libc.a(nanoprintf.o) (__ishl)
/Users/kristofer/agondev/release/lib/libcrt.a(ishrs.o)
                              /Users/kristofer/agondev/release/lib/libc.a(nanoprintf.o) (__ishru)
/Users/kristofer/agondev/release/lib/libcrt.a(ladd.o)
                              /Users/kristofer/agondev/release/lib/libc.a(nanoprintf.o) (__ladd)
/Users/kristofer/agondev/release/lib/libcrt.a(lcmpu.o)
                              obj/main.o (__lcmpu)
/Users/kristofer/agondev/release/lib/libcrt.a(lcmpzero.o)
                              /Users/kristofer/agondev/release/lib/libc.a(nanoprintf.o) (__lcmpzero)
/Users/kristofer/agondev/release/lib/libcrt.a(ldivu.o)
                              /Users/kristofer/agondev/release/lib/libc.a(nanoprintf.o) (__ldivu)
/Users/kristofer/agondev/release/lib/libcrt.a(ldvrmu.o)
                              /Users/kristofer/agondev/release/lib/libcrt.a(ldivu.o) (__ldvrmu)
/Users/kristofer/agondev/release/lib/libcrt.a(lmulu.o)
                              /Users/kristofer/agondev/release/lib/libc.a(nanoprintf.o) (__lmulu)
/Users/kristofer/agondev/release/lib/libcrt.a(lneg.o)
                              /Users/kristofer/agondev/release/lib/libc.a(nanoprintf.o) (__lneg)
/Users/kristofer/agondev/release/lib/libcrt.a(lshl.o)
                              /Users/kristofer/agondev/release/lib/libc.a(nanoprintf.o) (__lshl)
/Users/kristofer/agondev/release/lib/libcrt.a(lshru.o)
                              /Users/kristofer/agondev/release/lib/libc.a(nanoprintf.o) (__lshru)
/Users/kristofer/agondev/release/lib/libcrt.a(sand.o)
                              /Users/kristofer/agondev/release/lib/libc.a(nanoprintf.o) (__sand)
/Users/kristofer/agondev/release/lib/libcrt.a(setflag.o)
                              /Users/kristofer/agondev/release/lib/libc.a(nanoprintf.o) (__setflag)
/Users/kristofer/agondev/release/lib/libcrt.a(sshru.o)
                              /Users/kristofer/agondev/release/lib/libc.a(nanoprintf.o) (__sshru)
/Users/kristofer/agondev/release/lib/libcrt.a(xor.o)
                              /Users/kristofer/agondev/release/lib/libc.a(nanoprintf.o) (__ixor)
/Users/kristofer/agondev/release/lib/libcrt.a(lshrs.o)
                              /Users/kristofer/agondev/release/lib/libcrt.a(lshru.o) (__lshrs.hijack_lshru)
/Users/kristofer/agondev/release/lib/libfp.a(fpcmp.o)
                              /Users/kristofer/agondev/release/lib/libc.a(nanoprintf.o) (__fcmp)
/Users/kristofer/agondev/release/lib/libc.a(free.c.o)
                              /Users/kristofer/agondev/release/lib/libcrt.a(crt0.o) (_free)
/Users/kristofer/agondev/release/lib/libc.a(malloc.c.o)
                              /Users/kristofer/agondev/release/lib/libcrt.a(crt0.o) (_malloc)
/Users/kristofer/agondev/release/lib/libc.a(mos_setintvector.o)
                              /Users/kristofer/agondev/release/lib/libagon.a(vdp_key.o) (_mos_setintvector)
/Users/kristofer/agondev/release/lib/libc.a(sbrk.o)
                              /Users/kristofer/agondev/release/lib/libc.a(malloc.c.o) (_sbrk)
/Users/kristofer/agondev/release/lib/libcrt.a(lcmps.o)
                              /Users/kristofer/agondev/release/lib/libfp.a(fpcmp.o) (__lcmps)

There are no discarded input sections

Memory Configuration

Name             Origin             Length             Attributes
USERRAM          0x00040000         0x00070000         rw
*default*        0x00000000         0xffffffff

Linker script and memory map

                0x00040000                        RAM_START = 0x40000
                0x00070000                        RAM_SIZE = 0x70000
                0x00000000                        _has_exit_handler = 0x0
                0x00040000                        . = RAM_START

.init           0x00040000      0x1d4
 *(.init .init.args .init.bss .fini)
 .init          0x00040000       0xbb /Users/kristofer/agondev/release/lib/libcrt.a(crt0.o)
                0x00040040                __mos_header
                0x00040045                __start
                0x000400b8                __start._main
 .fini          0x000400bb       0xbe /Users/kristofer/agondev/release/lib/libcrt.a(crt0.o)
                0x000400bb                ___exithl
                0x000400bd                _exit
                0x0004011c                __Exit
                0x00040120                _abort
 .init.bss      0x00040179       0x11 /Users/kristofer/agondev/release/lib/libcrt.a(crt0.o)
 .init.args     0x0004018a       0x4a /Users/kristofer/agondev/release/lib/libcrt.a(crt0.o)
                0x0004018a                _parse_option
                0x0004018a                _parse_params

.text           0x000401d4     0x1cc4
 *(.text)
 .text          0x000401d4       0xdd obj/main.o
                0x000401d4                _key_event_handler
                0x00040222                _getCharacter
                0x00040242                _initVDP
                0x00040265                _cleanupVDP
                0x00040266                _main
 .text          0x000402b1       0x2c /Users/kristofer/agondev/release/lib/libc.a(puts.o)
                0x000402b1                _puts
 .text          0x000402dd     0x13b8 /Users/kristofer/agondev/release/lib/libc.a(nanoprintf.o)
                0x000402dd                _npf_vpprintf
                0x0004141e                _npf_pprintf
                0x00041446                _npf_snprintf
                0x0004146e                _npf_vsnprintf
                0x0004151b                _vprintf
                0x0004154b                _printf
                0x0004156a                _fprintf
                0x0004158d                _vfprintf
                0x000415c2                _vsnprintf
                0x00041625                _snprintf
                0x0004164d                _vsprintf
                0x0004166c                _sprintf
 .text          0x00041695       0x2f /Users/kristofer/agondev/release/lib/libc.a(putchar.o)
                0x00041695                _putchar
 .text          0x000416c4       0x52 /Users/kristofer/agondev/release/lib/libc.a(files.o)
                0x000416c4                __stdio_init
 .text          0x00041716       0xb7 /Users/kristofer/agondev/release/lib/libc.a(fputc.o)
                0x00041716                _fputc
                0x000417a6                _fput_char
 .text          0x000417cd       0x18 /Users/kristofer/agondev/release/lib/libc.a(mos_fputc.o)
                0x000417cd                _mos_fputc
 .text          0x000417e5        0x7 /Users/kristofer/agondev/release/lib/libc.a(outchar.o)
                0x000417e5                _outchar
 .text          0x000417ec      0x1ec /Users/kristofer/agondev/release/lib/libagon.a(vdp_key.o)
                0x000417ec                _vdp_key_init
                0x000418a7                _check_bytes_get_int
                0x000418d9                _check_bytes
                0x000418fe                _vdp_key_reset_interrupt
                0x0004191d                _vdp_set_key_event_handler
                0x0004192b                _vdp_update_key_state
                0x000419a4                _vdp_check_key_press
 .text          0x000419d8       0xab /Users/kristofer/agondev/release/lib/libagon.a(intagon.o)
                0x000419d8                __agdev_default_mi_handler
                0x000419dc                __agdev_uart0_handler
                0x000419e4                __agdev_UART0_serial_RX
                0x000419e9                __agdev_vdp_protocol_data
                0x000419ee                __agdev_vdp_protocol
 .text          0x00041a83       0x1c /Users/kristofer/agondev/release/lib/libcrt.a(and.o)
                0x00041a83                __land
                0x00041a88                __iand
                0x00041a89                __iand.hijack_land
 .text          0x00041a9f        0xa /Users/kristofer/agondev/release/lib/libcrt.a(bshru.o)
                0x00041a9f                __bshru
 .text          0x00041aa9       0x2c /Users/kristofer/agondev/release/lib/libcrt.a(crt0.o)
                0x00041aa9                _atexit
                0x00041aa9                _on_exit
 .text          0x00041ad5        0xe /Users/kristofer/agondev/release/lib/libcrt.a(frameset.o)
                0x00041ad5                __frameset
 .text          0x00041ae3        0xb /Users/kristofer/agondev/release/lib/libcrt.a(frameset0.o)
                0x00041ae3                __frameset0
 .text          0x00041aee        0x8 /Users/kristofer/agondev/release/lib/libcrt.a(idivu.o)
                0x00041aee                __idivu
 .text          0x00041af6       0x18 /Users/kristofer/agondev/release/lib/libcrt.a(idvrmu.o)
                0x00041af6                __idvrmu
                0x00041afa                __idvrmu.hijack_a_iters_ude_dividend
 .text          0x00041b0e       0x30 /Users/kristofer/agondev/release/lib/libcrt.a(imulu.o)
                0x00041b0e                __imuls
                0x00041b0e                __imulu
 .text          0x00041b3e        0x1 /Users/kristofer/agondev/release/lib/libcrt.a(indcallhl.o)
                0x00041b3e                __indcallhl
 .text          0x00041b3f       0x26 /Users/kristofer/agondev/release/lib/libcrt.a(ishl.o)
                0x00041b3f                __sshl
                0x00041b3f                __ishl
 .text          0x00041b65       0x41 /Users/kristofer/agondev/release/lib/libcrt.a(ishrs.o)
                0x00041b65                __ishru
                0x00041b6a                __ishrs
 .text          0x00041ba6        0x6 /Users/kristofer/agondev/release/lib/libcrt.a(ladd.o)
                0x00041ba6                __ladd
 .text          0x00041bac        0x8 /Users/kristofer/agondev/release/lib/libcrt.a(lcmpu.o)
                0x00041bac                __lcmpu
 .text          0x00041bb4        0xb /Users/kristofer/agondev/release/lib/libcrt.a(lcmpzero.o)
                0x00041bb4                __lcmpzero
 .text          0x00041bbf        0xa /Users/kristofer/agondev/release/lib/libcrt.a(ldivu.o)
                0x00041bbf                __ldivu
 .text          0x00041bc9       0x28 /Users/kristofer/agondev/release/lib/libcrt.a(ldvrmu.o)
                0x00041bc9                __ldvrmu
 .text          0x00041bf1       0x5c /Users/kristofer/agondev/release/lib/libcrt.a(lmulu.o)
                0x00041bf1                __lmuls
                0x00041bf1                __lmulu
 .text          0x00041c4d        0xd /Users/kristofer/agondev/release/lib/libcrt.a(lneg.o)
                0x00041c4d                __lneg
 .text          0x00041c5a        0xd /Users/kristofer/agondev/release/lib/libcrt.a(lshl.o)
                0x00041c5a                __lshl
 .text          0x00041c67       0x10 /Users/kristofer/agondev/release/lib/libcrt.a(lshru.o)
                0x00041c67                __lshru
 .text          0x00041c77        0x9 /Users/kristofer/agondev/release/lib/libcrt.a(sand.o)
                0x00041c77                __sand
 .text          0x00041c80        0xf /Users/kristofer/agondev/release/lib/libcrt.a(setflag.o)
                0x00041c80                __setflag
 .text          0x00041c8f        0xd /Users/kristofer/agondev/release/lib/libcrt.a(sshru.o)
                0x00041c8f                __sshru
 .text          0x00041c9c       0x1b /Users/kristofer/agondev/release/lib/libcrt.a(xor.o)
                0x00041c9c                __lxor
                0x00041ca0                __ixor
 .text          0x00041cb7       0x1b /Users/kristofer/agondev/release/lib/libcrt.a(lshrs.o)
                0x00041cb7                __lshrs
                0x00041cc3                __lshrs.hijack_lshru
 .text          0x00041cd2       0x1d /Users/kristofer/agondev/release/lib/libfp.a(fpcmp.o)
                0x00041cd2                __fcmp
 .text          0x00041cef       0xbd /Users/kristofer/agondev/release/lib/libc.a(free.c.o)
                0x00041cef                _free
 .text          0x00041dac       0x9f /Users/kristofer/agondev/release/lib/libc.a(malloc.c.o)
                0x00041dac                _malloc
 .text          0x00041e4b       0x18 /Users/kristofer/agondev/release/lib/libc.a(mos_setintvector.o)
                0x00041e4b                _mos_setintvector
 .text          0x00041e63       0x28 /Users/kristofer/agondev/release/lib/libc.a(sbrk.o)
                0x00041e63                _sbrk
 .text          0x00041e8b        0xd /Users/kristofer/agondev/release/lib/libcrt.a(lcmps.o)
                0x00041e8b                __lcmps

.init_array     0x00041e98        0x0
 *(.init_array)
 .init_array    0x00041e98        0x0 /Users/kristofer/agondev/release/lib/libcrt.a(crt0.o)

.ctors          0x00041e98        0x0
 *(.ctors)
 .ctors         0x00041e98        0x0 /Users/kristofer/agondev/release/lib/libcrt.a(crt0.o)

.dtors          0x00041e98        0x0
 *(.dtors)
 .dtors         0x00041e98        0x0 /Users/kristofer/agondev/release/lib/libcrt.a(crt0.o)

.comment        0x00000000      0x309
 .comment       0x00000000       0x71 obj/main.o
 .comment       0x00000071       0x71 /Users/kristofer/agondev/release/lib/libc.a(nanoprintf.o)
 .comment       0x000000e2       0x71 /Users/kristofer/agondev/release/lib/libc.a(files.o)
 .comment       0x00000153       0x71 /Users/kristofer/agondev/release/lib/libc.a(fputc.o)
 .comment       0x000001c4       0x71 /Users/kristofer/agondev/release/lib/libagon.a(vdp_key.o)
 .comment       0x00000235       0x6a /Users/kristofer/agondev/release/lib/libc.a(free.c.o)
 .comment       0x0000029f       0x6a /Users/kristofer/agondev/release/lib/libc.a(malloc.c.o)

.fini_array     0x00041e98        0x0
 *(.fini_array)
 .fini_array    0x00041e98        0x0 /Users/kristofer/agondev/release/lib/libcrt.a(crt0.o)

.rodata         0x00041e98      0x100
 *(.rodata)
 .rodata        0x00041e98       0x38 obj/main.o
 .rodata        0x00041ed0        0x9 /Users/kristofer/agondev/release/lib/libc.a(puts.o)
                0x00041ed0                ___null_literal_str
                0x00041ed7                ___end_of_line_str
 .rodata        0x00041ed9       0xab /Users/kristofer/agondev/release/lib/libc.a(nanoprintf.o)
 .rodata        0x00041f84        0x8 /Users/kristofer/agondev/release/lib/libagon.a(vdp_key.o)
 .rodata        0x00041f8c        0xc /Users/kristofer/agondev/release/lib/libcrt.a(crt0.o)

.data           0x00041f98       0x60
 *(.data)
 .data          0x00041f98        0x3 obj/main.o
                0x00041f98                __current_key
 .data          0x00041f9b        0x0 /Users/kristofer/agondev/release/lib/libc.a(puts.o)
 .data          0x00041f9b        0x0 /Users/kristofer/agondev/release/lib/libc.a(nanoprintf.o)
 .data          0x00041f9b        0x0 /Users/kristofer/agondev/release/lib/libc.a(putchar.o)
 .data          0x00041f9b        0xf /Users/kristofer/agondev/release/lib/libc.a(files.o)
                0x00041f9b                _stdin
                0x00041fa0                _stdout
                0x00041fa5                _stderr
 .data          0x00041faa        0x0 /Users/kristofer/agondev/release/lib/libc.a(fputc.o)
 .data          0x00041faa        0x0 /Users/kristofer/agondev/release/lib/libc.a(mos_fputc.o)
 .data          0x00041faa        0x0 /Users/kristofer/agondev/release/lib/libc.a(outchar.o)
 .data          0x00041faa       0x15 /Users/kristofer/agondev/release/lib/libagon.a(vdp_key.o)
 .data          0x00041fbf        0x0 /Users/kristofer/agondev/release/lib/libagon.a(intagon.o)
 .data          0x00041fbf        0x0 /Users/kristofer/agondev/release/lib/libcrt.a(and.o)
 .data          0x00041fbf        0x0 /Users/kristofer/agondev/release/lib/libcrt.a(bshru.o)
 .data          0x00041fbf       0x36 /Users/kristofer/agondev/release/lib/libcrt.a(crt0.o)
                0x00041ff2                _exit.sp
 .data          0x00041ff5        0x0 /Users/kristofer/agondev/release/lib/libcrt.a(frameset.o)
 .data          0x00041ff5        0x0 /Users/kristofer/agondev/release/lib/libcrt.a(frameset0.o)
 .data          0x00041ff5        0x0 /Users/kristofer/agondev/release/lib/libcrt.a(idivu.o)
 .data          0x00041ff5        0x0 /Users/kristofer/agondev/release/lib/libcrt.a(idvrmu.o)
 .data          0x00041ff5        0x0 /Users/kristofer/agondev/release/lib/libcrt.a(imulu.o)
 .data          0x00041ff5        0x0 /Users/kristofer/agondev/release/lib/libcrt.a(indcallhl.o)
 .data          0x00041ff5        0x0 /Users/kristofer/agondev/release/lib/libcrt.a(ishl.o)
 .data          0x00041ff5        0x0 /Users/kristofer/agondev/release/lib/libcrt.a(ishrs.o)
 .data          0x00041ff5        0x0 /Users/kristofer/agondev/release/lib/libcrt.a(ladd.o)
 .data          0x00041ff5        0x0 /Users/kristofer/agondev/release/lib/libcrt.a(lcmpu.o)
 .data          0x00041ff5        0x0 /Users/kristofer/agondev/release/lib/libcrt.a(lcmpzero.o)
 .data          0x00041ff5        0x0 /Users/kristofer/agondev/release/lib/libcrt.a(ldivu.o)
 .data          0x00041ff5        0x0 /Users/kristofer/agondev/release/lib/libcrt.a(ldvrmu.o)
 .data          0x00041ff5        0x0 /Users/kristofer/agondev/release/lib/libcrt.a(lmulu.o)
 .data          0x00041ff5        0x0 /Users/kristofer/agondev/release/lib/libcrt.a(lneg.o)
 .data          0x00041ff5        0x0 /Users/kristofer/agondev/release/lib/libcrt.a(lshl.o)
 .data          0x00041ff5        0x0 /Users/kristofer/agondev/release/lib/libcrt.a(lshru.o)
 .data          0x00041ff5        0x0 /Users/kristofer/agondev/release/lib/libcrt.a(sand.o)
 .data          0x00041ff5        0x0 /Users/kristofer/agondev/release/lib/libcrt.a(setflag.o)
 .data          0x00041ff5        0x0 /Users/kristofer/agondev/release/lib/libcrt.a(sshru.o)
 .data          0x00041ff5        0x0 /Users/kristofer/agondev/release/lib/libcrt.a(xor.o)
 .data          0x00041ff5        0x0 /Users/kristofer/agondev/release/lib/libcrt.a(lshrs.o)
 .data          0x00041ff5        0x0 /Users/kristofer/agondev/release/lib/libfp.a(fpcmp.o)
 .data          0x00041ff5        0x0 /Users/kristofer/agondev/release/lib/libc.a(free.c.o)
 .data          0x00041ff5        0x0 /Users/kristofer/agondev/release/lib/libc.a(malloc.c.o)
 .data          0x00041ff5        0x0 /Users/kristofer/agondev/release/lib/libc.a(mos_setintvector.o)
 .data          0x00041ff5        0x3 /Users/kristofer/agondev/release/lib/libc.a(sbrk.o)
                0x00041ff5                __sbrkbase
 .data          0x00041ff8        0x0 /Users/kristofer/agondev/release/lib/libcrt.a(lcmps.o)

.bss            0x00041ff8       0x5e
                0x00041ff8                        bss_start = .
 *(.bss .bss*)
 .bss           0x00041ff8        0x4 obj/main.o
 .bss           0x00041ffc        0x0 /Users/kristofer/agondev/release/lib/libc.a(puts.o)
 .bss           0x00041ffc        0x0 /Users/kristofer/agondev/release/lib/libc.a(nanoprintf.o)
 .bss           0x00041ffc        0x0 /Users/kristofer/agondev/release/lib/libc.a(putchar.o)
 .bss           0x00041ffc       0x28 /Users/kristofer/agondev/release/lib/libc.a(files.o)
                0x00041ffc                __file_streams
 .bss           0x00042024        0x0 /Users/kristofer/agondev/release/lib/libc.a(fputc.o)
 .bss           0x00042024        0x0 /Users/kristofer/agondev/release/lib/libc.a(mos_fputc.o)
 .bss           0x00042024        0x0 /Users/kristofer/agondev/release/lib/libc.a(outchar.o)
 .bss           0x00042024       0x2c /Users/kristofer/agondev/release/lib/libagon.a(vdp_key.o)
                0x00042024                _vdp_key_bits
 .bss           0x00042050        0x0 /Users/kristofer/agondev/release/lib/libagon.a(intagon.o)
 .bss           0x00042050        0x0 /Users/kristofer/agondev/release/lib/libcrt.a(and.o)
 .bss           0x00042050        0x0 /Users/kristofer/agondev/release/lib/libcrt.a(bshru.o)
 .bss           0x00042050        0x0 /Users/kristofer/agondev/release/lib/libcrt.a(crt0.o)
 .bss           0x00042050        0x0 /Users/kristofer/agondev/release/lib/libcrt.a(frameset.o)
 .bss           0x00042050        0x0 /Users/kristofer/agondev/release/lib/libcrt.a(frameset0.o)
 .bss           0x00042050        0x0 /Users/kristofer/agondev/release/lib/libcrt.a(idivu.o)
 .bss           0x00042050        0x0 /Users/kristofer/agondev/release/lib/libcrt.a(idvrmu.o)
 .bss           0x00042050        0x0 /Users/kristofer/agondev/release/lib/libcrt.a(imulu.o)
 .bss           0x00042050        0x0 /Users/kristofer/agondev/release/lib/libcrt.a(indcallhl.o)
 .bss           0x00042050        0x0 /Users/kristofer/agondev/release/lib/libcrt.a(ishl.o)
 .bss           0x00042050        0x0 /Users/kristofer/agondev/release/lib/libcrt.a(ishrs.o)
 .bss           0x00042050        0x0 /Users/kristofer/agondev/release/lib/libcrt.a(ladd.o)
 .bss           0x00042050        0x0 /Users/kristofer/agondev/release/lib/libcrt.a(lcmpu.o)
 .bss           0x00042050        0x0 /Users/kristofer/agondev/release/lib/libcrt.a(lcmpzero.o)
 .bss           0x00042050        0x0 /Users/kristofer/agondev/release/lib/libcrt.a(ldivu.o)
 .bss           0x00042050        0x0 /Users/kristofer/agondev/release/lib/libcrt.a(ldvrmu.o)
 .bss           0x00042050        0x0 /Users/kristofer/agondev/release/lib/libcrt.a(lmulu.o)
 .bss           0x00042050        0x0 /Users/kristofer/agondev/release/lib/libcrt.a(lneg.o)
 .bss           0x00042050        0x0 /Users/kristofer/agondev/release/lib/libcrt.a(lshl.o)
 .bss           0x00042050        0x0 /Users/kristofer/agondev/release/lib/libcrt.a(lshru.o)
 .bss           0x00042050        0x0 /Users/kristofer/agondev/release/lib/libcrt.a(sand.o)
 .bss           0x00042050        0x0 /Users/kristofer/agondev/release/lib/libcrt.a(setflag.o)
 .bss           0x00042050        0x0 /Users/kristofer/agondev/release/lib/libcrt.a(sshru.o)
 .bss           0x00042050        0x0 /Users/kristofer/agondev/release/lib/libcrt.a(xor.o)
 .bss           0x00042050        0x0 /Users/kristofer/agondev/release/lib/libcrt.a(lshrs.o)
 .bss           0x00042050        0x0 /Users/kristofer/agondev/release/lib/libfp.a(fpcmp.o)
 .bss           0x00042050        0x0 /Users/kristofer/agondev/release/lib/libc.a(free.c.o)
 .bss           0x00042050        0x6 /Users/kristofer/agondev/release/lib/libc.a(malloc.c.o)
                0x00042050                __alloc_base
 .bss           0x00042056        0x0 /Users/kristofer/agondev/release/lib/libc.a(mos_setintvector.o)
 .bss           0x00042056        0x0 /Users/kristofer/agondev/release/lib/libc.a(sbrk.o)
 .bss           0x00042056        0x0 /Users/kristofer/agondev/release/lib/libcrt.a(lcmps.o)
                0x00042056                        bss_end = .
                0x000b0000                        __stack = (RAM_START + RAM_SIZE)
                0x00041ff8                        ___low_bss = bss_start
                0x0000005e                        ___len_bss = SIZEOF (.bss)
                0x00042056                        ___heapbot = bss_end
                0x000b0000                        ___heaptop = (RAM_START + RAM_SIZE)
                0x00000001                        ___run_clearbss = (___len_bss > 0x0)
                0x00000000                        ___init_array_count = (SIZEOF (.init_array) / 0x3)
                0x00000000                        ___ctors_count = (SIZEOF (.ctors) / 0x3)
                0x00000000                        ___dtors_count = (SIZEOF (.dtors) / 0x3)
                0x00000000                        ___fini_array_count = (SIZEOF (.fini_array) / 0x3)
                0x00000000                        ___init_count = (___init_array_count + ___ctors_count)
                0x00000000                        ___fini_count = (___dtors_count + ___fini_array_count)
                0x00000000                        ___run_init = (___init_count > 0x0)
                0x00000000                        ___run_fini = (___fini_count > 0x0)
                0x00000100                        ___init_count_a = ((((___init_count - 0x1) >> 0x10) & 0xff) + 0x1)
                0x00000100                        ___init_count_b = (((___init_count - 0x1) & 0xff) + 0x1)
                0x00000100                        ___init_count_c = ((((___init_count - 0x1) >> 0x8) & 0xff) + 0x1)
                0x00000100                        ___fini_count_a = ((((___fini_count - 0x1) >> 0x10) & 0xff) + 0x1)
                0x00000100                        ___fini_count_b = (((___fini_count - 0x1) & 0xff) + 0x1)
                0x00000100                        ___fini_count_c = ((((___fini_count - 0x1) >> 0x8) & 0xff) + 0x1)
                0x00041e98                        ___init_array_functions = (SIZEOF (.init_array) + ADDR (.init_array))
                0x00041e98                        ___init_ctors_functions = (SIZEOF (.ctors) + ADDR (.ctors))
                0x00041e98                        ___fini_dtors_functions = (SIZEOF (.dtors) + ADDR (.dtors))
                0x00041e98                        ___fini_array_functions = (SIZEOF (.fini_array) + ADDR (.fini_array))
LOAD obj/main.o
START GROUP
LOAD /Users/kristofer/agondev/release/lib/libc.a
LOAD /Users/kristofer/agondev/release/lib/libagon.a
LOAD /Users/kristofer/agondev/release/lib/libcrt.a
LOAD /Users/kristofer/agondev/release/lib/libfp.a
END GROUP
OUTPUT(bin/main.c.bin binary)
